
libcamera.so:     file format elf32-littlearm


Disassembly of section .plt:

0000bd00 <.plt>:
    bd00:	e52de004 	push	{lr}		; (str lr, [sp, #-4]!)
    bd04:	e59fe004 	ldr	lr, [pc, #4]	; bd10 <_ZN7android22QualcommCameraHardware22supportsSceneDetectionEv-0x6f4>
    bd08:	e08fe00e 	add	lr, pc, lr
    bd0c:	e5bef008 	ldr	pc, [lr, #8]!
    bd10:	00013dec 	andeq	r3, r1, ip, ror #27
    bd14:	e28fc600 	add	ip, pc, #0
    bd18:	e28cca13 	add	ip, ip, #77824	; 0x13000
    bd1c:	e5bcfdec 	ldr	pc, [ip, #3564]!	; 0xdec
    bd20:	e28fc600 	add	ip, pc, #0
    bd24:	e28cca13 	add	ip, ip, #77824	; 0x13000
    bd28:	e5bcfde4 	ldr	pc, [ip, #3556]!	; 0xde4
    bd2c:	e28fc600 	add	ip, pc, #0
    bd30:	e28cca13 	add	ip, ip, #77824	; 0x13000
    bd34:	e5bcfddc 	ldr	pc, [ip, #3548]!	; 0xddc
    bd38:	e28fc600 	add	ip, pc, #0
    bd3c:	e28cca13 	add	ip, ip, #77824	; 0x13000
    bd40:	e5bcfdd4 	ldr	pc, [ip, #3540]!	; 0xdd4
    bd44:	e28fc600 	add	ip, pc, #0
    bd48:	e28cca13 	add	ip, ip, #77824	; 0x13000
    bd4c:	e5bcfdcc 	ldr	pc, [ip, #3532]!	; 0xdcc
    bd50:	e28fc600 	add	ip, pc, #0
    bd54:	e28cca13 	add	ip, ip, #77824	; 0x13000
    bd58:	e5bcfdc4 	ldr	pc, [ip, #3524]!	; 0xdc4
    bd5c:	e28fc600 	add	ip, pc, #0
    bd60:	e28cca13 	add	ip, ip, #77824	; 0x13000
    bd64:	e5bcfdbc 	ldr	pc, [ip, #3516]!	; 0xdbc
    bd68:	e28fc600 	add	ip, pc, #0
    bd6c:	e28cca13 	add	ip, ip, #77824	; 0x13000
    bd70:	e5bcfdb4 	ldr	pc, [ip, #3508]!	; 0xdb4
    bd74:	e28fc600 	add	ip, pc, #0
    bd78:	e28cca13 	add	ip, ip, #77824	; 0x13000
    bd7c:	e5bcfdac 	ldr	pc, [ip, #3500]!	; 0xdac
    bd80:	e28fc600 	add	ip, pc, #0
    bd84:	e28cca13 	add	ip, ip, #77824	; 0x13000
    bd88:	e5bcfda4 	ldr	pc, [ip, #3492]!	; 0xda4
    bd8c:	e28fc600 	add	ip, pc, #0
    bd90:	e28cca13 	add	ip, ip, #77824	; 0x13000
    bd94:	e5bcfd9c 	ldr	pc, [ip, #3484]!	; 0xd9c
    bd98:	e28fc600 	add	ip, pc, #0
    bd9c:	e28cca13 	add	ip, ip, #77824	; 0x13000
    bda0:	e5bcfd94 	ldr	pc, [ip, #3476]!	; 0xd94
    bda4:	e28fc600 	add	ip, pc, #0
    bda8:	e28cca13 	add	ip, ip, #77824	; 0x13000
    bdac:	e5bcfd8c 	ldr	pc, [ip, #3468]!	; 0xd8c
    bdb0:	e28fc600 	add	ip, pc, #0
    bdb4:	e28cca13 	add	ip, ip, #77824	; 0x13000
    bdb8:	e5bcfd84 	ldr	pc, [ip, #3460]!	; 0xd84
    bdbc:	e28fc600 	add	ip, pc, #0
    bdc0:	e28cca13 	add	ip, ip, #77824	; 0x13000
    bdc4:	e5bcfd7c 	ldr	pc, [ip, #3452]!	; 0xd7c
    bdc8:	e28fc600 	add	ip, pc, #0
    bdcc:	e28cca13 	add	ip, ip, #77824	; 0x13000
    bdd0:	e5bcfd74 	ldr	pc, [ip, #3444]!	; 0xd74
    bdd4:	e28fc600 	add	ip, pc, #0
    bdd8:	e28cca13 	add	ip, ip, #77824	; 0x13000
    bddc:	e5bcfd6c 	ldr	pc, [ip, #3436]!	; 0xd6c
    bde0:	e28fc600 	add	ip, pc, #0
    bde4:	e28cca13 	add	ip, ip, #77824	; 0x13000
    bde8:	e5bcfd64 	ldr	pc, [ip, #3428]!	; 0xd64
    bdec:	e28fc600 	add	ip, pc, #0
    bdf0:	e28cca13 	add	ip, ip, #77824	; 0x13000
    bdf4:	e5bcfd5c 	ldr	pc, [ip, #3420]!	; 0xd5c
    bdf8:	e28fc600 	add	ip, pc, #0
    bdfc:	e28cca13 	add	ip, ip, #77824	; 0x13000
    be00:	e5bcfd54 	ldr	pc, [ip, #3412]!	; 0xd54
    be04:	e28fc600 	add	ip, pc, #0
    be08:	e28cca13 	add	ip, ip, #77824	; 0x13000
    be0c:	e5bcfd4c 	ldr	pc, [ip, #3404]!	; 0xd4c
    be10:	e28fc600 	add	ip, pc, #0
    be14:	e28cca13 	add	ip, ip, #77824	; 0x13000
    be18:	e5bcfd44 	ldr	pc, [ip, #3396]!	; 0xd44
    be1c:	e28fc600 	add	ip, pc, #0
    be20:	e28cca13 	add	ip, ip, #77824	; 0x13000
    be24:	e5bcfd3c 	ldr	pc, [ip, #3388]!	; 0xd3c
    be28:	e28fc600 	add	ip, pc, #0
    be2c:	e28cca13 	add	ip, ip, #77824	; 0x13000
    be30:	e5bcfd34 	ldr	pc, [ip, #3380]!	; 0xd34
    be34:	e28fc600 	add	ip, pc, #0
    be38:	e28cca13 	add	ip, ip, #77824	; 0x13000
    be3c:	e5bcfd2c 	ldr	pc, [ip, #3372]!	; 0xd2c
    be40:	e28fc600 	add	ip, pc, #0
    be44:	e28cca13 	add	ip, ip, #77824	; 0x13000
    be48:	e5bcfd24 	ldr	pc, [ip, #3364]!	; 0xd24
    be4c:	e28fc600 	add	ip, pc, #0
    be50:	e28cca13 	add	ip, ip, #77824	; 0x13000
    be54:	e5bcfd1c 	ldr	pc, [ip, #3356]!	; 0xd1c
    be58:	e28fc600 	add	ip, pc, #0
    be5c:	e28cca13 	add	ip, ip, #77824	; 0x13000
    be60:	e5bcfd14 	ldr	pc, [ip, #3348]!	; 0xd14
    be64:	e28fc600 	add	ip, pc, #0
    be68:	e28cca13 	add	ip, ip, #77824	; 0x13000
    be6c:	e5bcfd0c 	ldr	pc, [ip, #3340]!	; 0xd0c
    be70:	e28fc600 	add	ip, pc, #0
    be74:	e28cca13 	add	ip, ip, #77824	; 0x13000
    be78:	e5bcfd04 	ldr	pc, [ip, #3332]!	; 0xd04
    be7c:	e28fc600 	add	ip, pc, #0
    be80:	e28cca13 	add	ip, ip, #77824	; 0x13000
    be84:	e5bcfcfc 	ldr	pc, [ip, #3324]!	; 0xcfc
    be88:	e28fc600 	add	ip, pc, #0
    be8c:	e28cca13 	add	ip, ip, #77824	; 0x13000
    be90:	e5bcfcf4 	ldr	pc, [ip, #3316]!	; 0xcf4
    be94:	e28fc600 	add	ip, pc, #0
    be98:	e28cca13 	add	ip, ip, #77824	; 0x13000
    be9c:	e5bcfcec 	ldr	pc, [ip, #3308]!	; 0xcec
    bea0:	e28fc600 	add	ip, pc, #0
    bea4:	e28cca13 	add	ip, ip, #77824	; 0x13000
    bea8:	e5bcfce4 	ldr	pc, [ip, #3300]!	; 0xce4
    beac:	e28fc600 	add	ip, pc, #0
    beb0:	e28cca13 	add	ip, ip, #77824	; 0x13000
    beb4:	e5bcfcdc 	ldr	pc, [ip, #3292]!	; 0xcdc
    beb8:	e28fc600 	add	ip, pc, #0
    bebc:	e28cca13 	add	ip, ip, #77824	; 0x13000
    bec0:	e5bcfcd4 	ldr	pc, [ip, #3284]!	; 0xcd4
    bec4:	e28fc600 	add	ip, pc, #0
    bec8:	e28cca13 	add	ip, ip, #77824	; 0x13000
    becc:	e5bcfccc 	ldr	pc, [ip, #3276]!	; 0xccc
    bed0:	e28fc600 	add	ip, pc, #0
    bed4:	e28cca13 	add	ip, ip, #77824	; 0x13000
    bed8:	e5bcfcc4 	ldr	pc, [ip, #3268]!	; 0xcc4
    bedc:	e28fc600 	add	ip, pc, #0
    bee0:	e28cca13 	add	ip, ip, #77824	; 0x13000
    bee4:	e5bcfcbc 	ldr	pc, [ip, #3260]!	; 0xcbc
    bee8:	e28fc600 	add	ip, pc, #0
    beec:	e28cca13 	add	ip, ip, #77824	; 0x13000
    bef0:	e5bcfcb4 	ldr	pc, [ip, #3252]!	; 0xcb4
    bef4:	e28fc600 	add	ip, pc, #0
    bef8:	e28cca13 	add	ip, ip, #77824	; 0x13000
    befc:	e5bcfcac 	ldr	pc, [ip, #3244]!	; 0xcac
    bf00:	e28fc600 	add	ip, pc, #0
    bf04:	e28cca13 	add	ip, ip, #77824	; 0x13000
    bf08:	e5bcfca4 	ldr	pc, [ip, #3236]!	; 0xca4
    bf0c:	e28fc600 	add	ip, pc, #0
    bf10:	e28cca13 	add	ip, ip, #77824	; 0x13000
    bf14:	e5bcfc9c 	ldr	pc, [ip, #3228]!	; 0xc9c
    bf18:	e28fc600 	add	ip, pc, #0
    bf1c:	e28cca13 	add	ip, ip, #77824	; 0x13000
    bf20:	e5bcfc94 	ldr	pc, [ip, #3220]!	; 0xc94
    bf24:	e28fc600 	add	ip, pc, #0
    bf28:	e28cca13 	add	ip, ip, #77824	; 0x13000
    bf2c:	e5bcfc8c 	ldr	pc, [ip, #3212]!	; 0xc8c
    bf30:	e28fc600 	add	ip, pc, #0
    bf34:	e28cca13 	add	ip, ip, #77824	; 0x13000
    bf38:	e5bcfc84 	ldr	pc, [ip, #3204]!	; 0xc84
    bf3c:	e28fc600 	add	ip, pc, #0
    bf40:	e28cca13 	add	ip, ip, #77824	; 0x13000
    bf44:	e5bcfc7c 	ldr	pc, [ip, #3196]!	; 0xc7c
    bf48:	e28fc600 	add	ip, pc, #0
    bf4c:	e28cca13 	add	ip, ip, #77824	; 0x13000
    bf50:	e5bcfc74 	ldr	pc, [ip, #3188]!	; 0xc74
    bf54:	e28fc600 	add	ip, pc, #0
    bf58:	e28cca13 	add	ip, ip, #77824	; 0x13000
    bf5c:	e5bcfc6c 	ldr	pc, [ip, #3180]!	; 0xc6c
    bf60:	e28fc600 	add	ip, pc, #0
    bf64:	e28cca13 	add	ip, ip, #77824	; 0x13000
    bf68:	e5bcfc64 	ldr	pc, [ip, #3172]!	; 0xc64
    bf6c:	e28fc600 	add	ip, pc, #0
    bf70:	e28cca13 	add	ip, ip, #77824	; 0x13000
    bf74:	e5bcfc5c 	ldr	pc, [ip, #3164]!	; 0xc5c
    bf78:	e28fc600 	add	ip, pc, #0
    bf7c:	e28cca13 	add	ip, ip, #77824	; 0x13000
    bf80:	e5bcfc54 	ldr	pc, [ip, #3156]!	; 0xc54
    bf84:	e28fc600 	add	ip, pc, #0
    bf88:	e28cca13 	add	ip, ip, #77824	; 0x13000
    bf8c:	e5bcfc4c 	ldr	pc, [ip, #3148]!	; 0xc4c
    bf90:	e28fc600 	add	ip, pc, #0
    bf94:	e28cca13 	add	ip, ip, #77824	; 0x13000
    bf98:	e5bcfc44 	ldr	pc, [ip, #3140]!	; 0xc44
    bf9c:	e28fc600 	add	ip, pc, #0
    bfa0:	e28cca13 	add	ip, ip, #77824	; 0x13000
    bfa4:	e5bcfc3c 	ldr	pc, [ip, #3132]!	; 0xc3c
    bfa8:	e28fc600 	add	ip, pc, #0
    bfac:	e28cca13 	add	ip, ip, #77824	; 0x13000
    bfb0:	e5bcfc34 	ldr	pc, [ip, #3124]!	; 0xc34
    bfb4:	e28fc600 	add	ip, pc, #0
    bfb8:	e28cca13 	add	ip, ip, #77824	; 0x13000
    bfbc:	e5bcfc2c 	ldr	pc, [ip, #3116]!	; 0xc2c
    bfc0:	e28fc600 	add	ip, pc, #0
    bfc4:	e28cca13 	add	ip, ip, #77824	; 0x13000
    bfc8:	e5bcfc24 	ldr	pc, [ip, #3108]!	; 0xc24
    bfcc:	e28fc600 	add	ip, pc, #0
    bfd0:	e28cca13 	add	ip, ip, #77824	; 0x13000
    bfd4:	e5bcfc1c 	ldr	pc, [ip, #3100]!	; 0xc1c
    bfd8:	e28fc600 	add	ip, pc, #0
    bfdc:	e28cca13 	add	ip, ip, #77824	; 0x13000
    bfe0:	e5bcfc14 	ldr	pc, [ip, #3092]!	; 0xc14
    bfe4:	e28fc600 	add	ip, pc, #0
    bfe8:	e28cca13 	add	ip, ip, #77824	; 0x13000
    bfec:	e5bcfc0c 	ldr	pc, [ip, #3084]!	; 0xc0c
    bff0:	e28fc600 	add	ip, pc, #0
    bff4:	e28cca13 	add	ip, ip, #77824	; 0x13000
    bff8:	e5bcfc04 	ldr	pc, [ip, #3076]!	; 0xc04
    bffc:	e28fc600 	add	ip, pc, #0
    c000:	e28cca13 	add	ip, ip, #77824	; 0x13000
    c004:	e5bcfbfc 	ldr	pc, [ip, #3068]!	; 0xbfc
    c008:	e28fc600 	add	ip, pc, #0
    c00c:	e28cca13 	add	ip, ip, #77824	; 0x13000
    c010:	e5bcfbf4 	ldr	pc, [ip, #3060]!	; 0xbf4
    c014:	e28fc600 	add	ip, pc, #0
    c018:	e28cca13 	add	ip, ip, #77824	; 0x13000
    c01c:	e5bcfbec 	ldr	pc, [ip, #3052]!	; 0xbec
    c020:	e28fc600 	add	ip, pc, #0
    c024:	e28cca13 	add	ip, ip, #77824	; 0x13000
    c028:	e5bcfbe4 	ldr	pc, [ip, #3044]!	; 0xbe4
    c02c:	e28fc600 	add	ip, pc, #0
    c030:	e28cca13 	add	ip, ip, #77824	; 0x13000
    c034:	e5bcfbdc 	ldr	pc, [ip, #3036]!	; 0xbdc
    c038:	e28fc600 	add	ip, pc, #0
    c03c:	e28cca13 	add	ip, ip, #77824	; 0x13000
    c040:	e5bcfbd4 	ldr	pc, [ip, #3028]!	; 0xbd4
    c044:	e28fc600 	add	ip, pc, #0
    c048:	e28cca13 	add	ip, ip, #77824	; 0x13000
    c04c:	e5bcfbcc 	ldr	pc, [ip, #3020]!	; 0xbcc
    c050:	e28fc600 	add	ip, pc, #0
    c054:	e28cca13 	add	ip, ip, #77824	; 0x13000
    c058:	e5bcfbc4 	ldr	pc, [ip, #3012]!	; 0xbc4
    c05c:	e28fc600 	add	ip, pc, #0
    c060:	e28cca13 	add	ip, ip, #77824	; 0x13000
    c064:	e5bcfbbc 	ldr	pc, [ip, #3004]!	; 0xbbc
    c068:	e28fc600 	add	ip, pc, #0
    c06c:	e28cca13 	add	ip, ip, #77824	; 0x13000
    c070:	e5bcfbb4 	ldr	pc, [ip, #2996]!	; 0xbb4
    c074:	e28fc600 	add	ip, pc, #0
    c078:	e28cca13 	add	ip, ip, #77824	; 0x13000
    c07c:	e5bcfbac 	ldr	pc, [ip, #2988]!	; 0xbac
    c080:	e28fc600 	add	ip, pc, #0
    c084:	e28cca13 	add	ip, ip, #77824	; 0x13000
    c088:	e5bcfba4 	ldr	pc, [ip, #2980]!	; 0xba4
    c08c:	e28fc600 	add	ip, pc, #0
    c090:	e28cca13 	add	ip, ip, #77824	; 0x13000
    c094:	e5bcfb9c 	ldr	pc, [ip, #2972]!	; 0xb9c
    c098:	e28fc600 	add	ip, pc, #0
    c09c:	e28cca13 	add	ip, ip, #77824	; 0x13000
    c0a0:	e5bcfb94 	ldr	pc, [ip, #2964]!	; 0xb94
    c0a4:	e28fc600 	add	ip, pc, #0
    c0a8:	e28cca13 	add	ip, ip, #77824	; 0x13000
    c0ac:	e5bcfb8c 	ldr	pc, [ip, #2956]!	; 0xb8c
    c0b0:	e28fc600 	add	ip, pc, #0
    c0b4:	e28cca13 	add	ip, ip, #77824	; 0x13000
    c0b8:	e5bcfb84 	ldr	pc, [ip, #2948]!	; 0xb84
    c0bc:	e28fc600 	add	ip, pc, #0
    c0c0:	e28cca13 	add	ip, ip, #77824	; 0x13000
    c0c4:	e5bcfb7c 	ldr	pc, [ip, #2940]!	; 0xb7c
    c0c8:	e28fc600 	add	ip, pc, #0
    c0cc:	e28cca13 	add	ip, ip, #77824	; 0x13000
    c0d0:	e5bcfb74 	ldr	pc, [ip, #2932]!	; 0xb74
    c0d4:	e28fc600 	add	ip, pc, #0
    c0d8:	e28cca13 	add	ip, ip, #77824	; 0x13000
    c0dc:	e5bcfb6c 	ldr	pc, [ip, #2924]!	; 0xb6c
    c0e0:	e28fc600 	add	ip, pc, #0
    c0e4:	e28cca13 	add	ip, ip, #77824	; 0x13000
    c0e8:	e5bcfb64 	ldr	pc, [ip, #2916]!	; 0xb64
    c0ec:	e28fc600 	add	ip, pc, #0
    c0f0:	e28cca13 	add	ip, ip, #77824	; 0x13000
    c0f4:	e5bcfb5c 	ldr	pc, [ip, #2908]!	; 0xb5c
    c0f8:	e28fc600 	add	ip, pc, #0
    c0fc:	e28cca13 	add	ip, ip, #77824	; 0x13000
    c100:	e5bcfb54 	ldr	pc, [ip, #2900]!	; 0xb54
    c104:	e28fc600 	add	ip, pc, #0
    c108:	e28cca13 	add	ip, ip, #77824	; 0x13000
    c10c:	e5bcfb4c 	ldr	pc, [ip, #2892]!	; 0xb4c
    c110:	e28fc600 	add	ip, pc, #0
    c114:	e28cca13 	add	ip, ip, #77824	; 0x13000
    c118:	e5bcfb44 	ldr	pc, [ip, #2884]!	; 0xb44
    c11c:	e28fc600 	add	ip, pc, #0
    c120:	e28cca13 	add	ip, ip, #77824	; 0x13000
    c124:	e5bcfb3c 	ldr	pc, [ip, #2876]!	; 0xb3c
    c128:	e28fc600 	add	ip, pc, #0
    c12c:	e28cca13 	add	ip, ip, #77824	; 0x13000
    c130:	e5bcfb34 	ldr	pc, [ip, #2868]!	; 0xb34
    c134:	e28fc600 	add	ip, pc, #0
    c138:	e28cca13 	add	ip, ip, #77824	; 0x13000
    c13c:	e5bcfb2c 	ldr	pc, [ip, #2860]!	; 0xb2c
    c140:	e28fc600 	add	ip, pc, #0
    c144:	e28cca13 	add	ip, ip, #77824	; 0x13000
    c148:	e5bcfb24 	ldr	pc, [ip, #2852]!	; 0xb24
    c14c:	e28fc600 	add	ip, pc, #0
    c150:	e28cca13 	add	ip, ip, #77824	; 0x13000
    c154:	e5bcfb1c 	ldr	pc, [ip, #2844]!	; 0xb1c
    c158:	e28fc600 	add	ip, pc, #0
    c15c:	e28cca13 	add	ip, ip, #77824	; 0x13000
    c160:	e5bcfb14 	ldr	pc, [ip, #2836]!	; 0xb14
    c164:	e28fc600 	add	ip, pc, #0
    c168:	e28cca13 	add	ip, ip, #77824	; 0x13000
    c16c:	e5bcfb0c 	ldr	pc, [ip, #2828]!	; 0xb0c
    c170:	e28fc600 	add	ip, pc, #0
    c174:	e28cca13 	add	ip, ip, #77824	; 0x13000
    c178:	e5bcfb04 	ldr	pc, [ip, #2820]!	; 0xb04
    c17c:	e28fc600 	add	ip, pc, #0
    c180:	e28cca13 	add	ip, ip, #77824	; 0x13000
    c184:	e5bcfafc 	ldr	pc, [ip, #2812]!	; 0xafc
    c188:	e28fc600 	add	ip, pc, #0
    c18c:	e28cca13 	add	ip, ip, #77824	; 0x13000
    c190:	e5bcfaf4 	ldr	pc, [ip, #2804]!	; 0xaf4
    c194:	e28fc600 	add	ip, pc, #0
    c198:	e28cca13 	add	ip, ip, #77824	; 0x13000
    c19c:	e5bcfaec 	ldr	pc, [ip, #2796]!	; 0xaec
    c1a0:	e28fc600 	add	ip, pc, #0
    c1a4:	e28cca13 	add	ip, ip, #77824	; 0x13000
    c1a8:	e5bcfae4 	ldr	pc, [ip, #2788]!	; 0xae4
    c1ac:	e28fc600 	add	ip, pc, #0
    c1b0:	e28cca13 	add	ip, ip, #77824	; 0x13000
    c1b4:	e5bcfadc 	ldr	pc, [ip, #2780]!	; 0xadc
    c1b8:	e28fc600 	add	ip, pc, #0
    c1bc:	e28cca13 	add	ip, ip, #77824	; 0x13000
    c1c0:	e5bcfad4 	ldr	pc, [ip, #2772]!	; 0xad4
    c1c4:	e28fc600 	add	ip, pc, #0
    c1c8:	e28cca13 	add	ip, ip, #77824	; 0x13000
    c1cc:	e5bcfacc 	ldr	pc, [ip, #2764]!	; 0xacc
    c1d0:	e28fc600 	add	ip, pc, #0
    c1d4:	e28cca13 	add	ip, ip, #77824	; 0x13000
    c1d8:	e5bcfac4 	ldr	pc, [ip, #2756]!	; 0xac4
    c1dc:	e28fc600 	add	ip, pc, #0
    c1e0:	e28cca13 	add	ip, ip, #77824	; 0x13000
    c1e4:	e5bcfabc 	ldr	pc, [ip, #2748]!	; 0xabc
    c1e8:	e28fc600 	add	ip, pc, #0
    c1ec:	e28cca13 	add	ip, ip, #77824	; 0x13000
    c1f0:	e5bcfab4 	ldr	pc, [ip, #2740]!	; 0xab4
    c1f4:	e28fc600 	add	ip, pc, #0
    c1f8:	e28cca13 	add	ip, ip, #77824	; 0x13000
    c1fc:	e5bcfaac 	ldr	pc, [ip, #2732]!	; 0xaac
    c200:	e28fc600 	add	ip, pc, #0
    c204:	e28cca13 	add	ip, ip, #77824	; 0x13000
    c208:	e5bcfaa4 	ldr	pc, [ip, #2724]!	; 0xaa4
    c20c:	e28fc600 	add	ip, pc, #0
    c210:	e28cca13 	add	ip, ip, #77824	; 0x13000
    c214:	e5bcfa9c 	ldr	pc, [ip, #2716]!	; 0xa9c
    c218:	e28fc600 	add	ip, pc, #0
    c21c:	e28cca13 	add	ip, ip, #77824	; 0x13000
    c220:	e5bcfa94 	ldr	pc, [ip, #2708]!	; 0xa94
    c224:	e28fc600 	add	ip, pc, #0
    c228:	e28cca13 	add	ip, ip, #77824	; 0x13000
    c22c:	e5bcfa8c 	ldr	pc, [ip, #2700]!	; 0xa8c
    c230:	e28fc600 	add	ip, pc, #0
    c234:	e28cca13 	add	ip, ip, #77824	; 0x13000
    c238:	e5bcfa84 	ldr	pc, [ip, #2692]!	; 0xa84
    c23c:	e28fc600 	add	ip, pc, #0
    c240:	e28cca13 	add	ip, ip, #77824	; 0x13000
    c244:	e5bcfa7c 	ldr	pc, [ip, #2684]!	; 0xa7c
    c248:	e28fc600 	add	ip, pc, #0
    c24c:	e28cca13 	add	ip, ip, #77824	; 0x13000
    c250:	e5bcfa74 	ldr	pc, [ip, #2676]!	; 0xa74
    c254:	e28fc600 	add	ip, pc, #0
    c258:	e28cca13 	add	ip, ip, #77824	; 0x13000
    c25c:	e5bcfa6c 	ldr	pc, [ip, #2668]!	; 0xa6c
    c260:	e28fc600 	add	ip, pc, #0
    c264:	e28cca13 	add	ip, ip, #77824	; 0x13000
    c268:	e5bcfa64 	ldr	pc, [ip, #2660]!	; 0xa64
    c26c:	e28fc600 	add	ip, pc, #0
    c270:	e28cca13 	add	ip, ip, #77824	; 0x13000
    c274:	e5bcfa5c 	ldr	pc, [ip, #2652]!	; 0xa5c
    c278:	e28fc600 	add	ip, pc, #0
    c27c:	e28cca13 	add	ip, ip, #77824	; 0x13000
    c280:	e5bcfa54 	ldr	pc, [ip, #2644]!	; 0xa54
    c284:	e28fc600 	add	ip, pc, #0
    c288:	e28cca13 	add	ip, ip, #77824	; 0x13000
    c28c:	e5bcfa4c 	ldr	pc, [ip, #2636]!	; 0xa4c
    c290:	e28fc600 	add	ip, pc, #0
    c294:	e28cca13 	add	ip, ip, #77824	; 0x13000
    c298:	e5bcfa44 	ldr	pc, [ip, #2628]!	; 0xa44
    c29c:	e28fc600 	add	ip, pc, #0
    c2a0:	e28cca13 	add	ip, ip, #77824	; 0x13000
    c2a4:	e5bcfa3c 	ldr	pc, [ip, #2620]!	; 0xa3c
    c2a8:	e28fc600 	add	ip, pc, #0
    c2ac:	e28cca13 	add	ip, ip, #77824	; 0x13000
    c2b0:	e5bcfa34 	ldr	pc, [ip, #2612]!	; 0xa34
    c2b4:	e28fc600 	add	ip, pc, #0
    c2b8:	e28cca13 	add	ip, ip, #77824	; 0x13000
    c2bc:	e5bcfa2c 	ldr	pc, [ip, #2604]!	; 0xa2c
    c2c0:	e28fc600 	add	ip, pc, #0
    c2c4:	e28cca13 	add	ip, ip, #77824	; 0x13000
    c2c8:	e5bcfa24 	ldr	pc, [ip, #2596]!	; 0xa24
    c2cc:	e28fc600 	add	ip, pc, #0
    c2d0:	e28cca13 	add	ip, ip, #77824	; 0x13000
    c2d4:	e5bcfa1c 	ldr	pc, [ip, #2588]!	; 0xa1c
    c2d8:	e28fc600 	add	ip, pc, #0
    c2dc:	e28cca13 	add	ip, ip, #77824	; 0x13000
    c2e0:	e5bcfa14 	ldr	pc, [ip, #2580]!	; 0xa14
    c2e4:	e28fc600 	add	ip, pc, #0
    c2e8:	e28cca13 	add	ip, ip, #77824	; 0x13000
    c2ec:	e5bcfa0c 	ldr	pc, [ip, #2572]!	; 0xa0c
    c2f0:	e28fc600 	add	ip, pc, #0
    c2f4:	e28cca13 	add	ip, ip, #77824	; 0x13000
    c2f8:	e5bcfa04 	ldr	pc, [ip, #2564]!	; 0xa04
    c2fc:	e28fc600 	add	ip, pc, #0
    c300:	e28cca13 	add	ip, ip, #77824	; 0x13000
    c304:	e5bcf9fc 	ldr	pc, [ip, #2556]!	; 0x9fc
    c308:	e28fc600 	add	ip, pc, #0
    c30c:	e28cca13 	add	ip, ip, #77824	; 0x13000
    c310:	e5bcf9f4 	ldr	pc, [ip, #2548]!	; 0x9f4
    c314:	e28fc600 	add	ip, pc, #0
    c318:	e28cca13 	add	ip, ip, #77824	; 0x13000
    c31c:	e5bcf9ec 	ldr	pc, [ip, #2540]!	; 0x9ec
    c320:	e28fc600 	add	ip, pc, #0
    c324:	e28cca13 	add	ip, ip, #77824	; 0x13000
    c328:	e5bcf9e4 	ldr	pc, [ip, #2532]!	; 0x9e4
    c32c:	e28fc600 	add	ip, pc, #0
    c330:	e28cca13 	add	ip, ip, #77824	; 0x13000
    c334:	e5bcf9dc 	ldr	pc, [ip, #2524]!	; 0x9dc
    c338:	e28fc600 	add	ip, pc, #0
    c33c:	e28cca13 	add	ip, ip, #77824	; 0x13000
    c340:	e5bcf9d4 	ldr	pc, [ip, #2516]!	; 0x9d4
    c344:	e28fc600 	add	ip, pc, #0
    c348:	e28cca13 	add	ip, ip, #77824	; 0x13000
    c34c:	e5bcf9cc 	ldr	pc, [ip, #2508]!	; 0x9cc
    c350:	e28fc600 	add	ip, pc, #0
    c354:	e28cca13 	add	ip, ip, #77824	; 0x13000
    c358:	e5bcf9c4 	ldr	pc, [ip, #2500]!	; 0x9c4
    c35c:	e28fc600 	add	ip, pc, #0
    c360:	e28cca13 	add	ip, ip, #77824	; 0x13000
    c364:	e5bcf9bc 	ldr	pc, [ip, #2492]!	; 0x9bc
    c368:	e28fc600 	add	ip, pc, #0
    c36c:	e28cca13 	add	ip, ip, #77824	; 0x13000
    c370:	e5bcf9b4 	ldr	pc, [ip, #2484]!	; 0x9b4
    c374:	e28fc600 	add	ip, pc, #0
    c378:	e28cca13 	add	ip, ip, #77824	; 0x13000
    c37c:	e5bcf9ac 	ldr	pc, [ip, #2476]!	; 0x9ac
    c380:	e28fc600 	add	ip, pc, #0
    c384:	e28cca13 	add	ip, ip, #77824	; 0x13000
    c388:	e5bcf9a4 	ldr	pc, [ip, #2468]!	; 0x9a4
    c38c:	e28fc600 	add	ip, pc, #0
    c390:	e28cca13 	add	ip, ip, #77824	; 0x13000
    c394:	e5bcf99c 	ldr	pc, [ip, #2460]!	; 0x99c
    c398:	e28fc600 	add	ip, pc, #0
    c39c:	e28cca13 	add	ip, ip, #77824	; 0x13000
    c3a0:	e5bcf994 	ldr	pc, [ip, #2452]!	; 0x994
    c3a4:	e28fc600 	add	ip, pc, #0
    c3a8:	e28cca13 	add	ip, ip, #77824	; 0x13000
    c3ac:	e5bcf98c 	ldr	pc, [ip, #2444]!	; 0x98c
    c3b0:	e28fc600 	add	ip, pc, #0
    c3b4:	e28cca13 	add	ip, ip, #77824	; 0x13000
    c3b8:	e5bcf984 	ldr	pc, [ip, #2436]!	; 0x984

Disassembly of section .text:

0000c3c0 <_ZN7android22QualcommCameraHardware22supportsSceneDetectionEv-0x44>:
    c3c0:	e28f0004 	add	r0, pc, #4
    c3c4:	e5900000 	ldr	r0, [r0]
    c3c8:	eafffff8 	b	c3b0 <_ZN7android22QualcommCameraHardware22supportsSceneDetectionEv-0x54>
    c3cc:	a7920540 	ldrge	r0, [r2, r0, asr #10]
    c3d0:	6801b510 	stmdavs	r1, {r4, r8, sl, ip, sp, pc}
    c3d4:	4798694b 	ldrmi	r6, [r8, fp, asr #18]
    c3d8:	bf00bd10 	svclt	0x0000bd10
    c3dc:	47702000 	ldrbmi	r2, [r0, -r0]!
    c3e0:	0015f06f 	andseq	pc, r5, pc, rrx
    c3e4:	bf004770 	svclt	0x00004770
    c3e8:	6980b510 	stmibvs	r0, {r4, r8, sl, ip, sp, pc}
    c3ec:	6801b148 	stmdavs	r1, {r3, r6, r8, ip, sp, pc}
    c3f0:	3c0cf851 	stccc	8, cr15, [ip], {81}	; 0x51
    c3f4:	f7ff18c0 	undefined instruction 0xf7ff18c0
    c3f8:	f1b0ffeb 	undefined instruction 0xf1b0ffeb
    c3fc:	bf1830ff 	svclt	0x001830ff
    c400:	bd102001 	ldclt	0, cr2, [r0, #-4]

0000c404 <_ZN7android22QualcommCameraHardware22supportsSceneDetectionEv>:
    c404:	4b0a      	ldr	r3, [pc, #40]	; (c430 <_ZN7android22QualcommCameraHardware22supportsSceneDetectionEv+0x2c>)
    c406:	4a0b      	ldr	r2, [pc, #44]	; (c434 <_ZN7android22QualcommCameraHardware22supportsSceneDetectionEv+0x30>)
    c408:	447b      	add	r3, pc
    c40a:	490b      	ldr	r1, [pc, #44]	; (c438 <_ZN7android22QualcommCameraHardware22supportsSceneDetectionEv+0x34>)
    c40c:	589b      	ldr	r3, [r3, r2]
    c40e:	4479      	add	r1, pc
    c410:	6809      	ldr	r1, [r1, #0]
    c412:	f103 0254 	add.w	r2, r3, #84	; 0x54
    c416:	6818      	ldr	r0, [r3, #0]
    c418:	4281      	cmp	r1, r0
    c41a:	d103      	bne.n	c424 <_ZN7android22QualcommCameraHardware22supportsSceneDetectionEv+0x20>
    c41c:	7a18      	ldrb	r0, [r3, #8]
    c41e:	b108      	cbz	r0, c424 <_ZN7android22QualcommCameraHardware22supportsSceneDetectionEv+0x20>
    c420:	2001      	movs	r0, #1
    c422:	e003      	b.n	c42c <_ZN7android22QualcommCameraHardware22supportsSceneDetectionEv+0x28>
    c424:	330c      	adds	r3, #12
    c426:	4293      	cmp	r3, r2
    c428:	d1f5      	bne.n	c416 <_ZN7android22QualcommCameraHardware22supportsSceneDetectionEv+0x12>
    c42a:	2000      	movs	r0, #0
    c42c:	4770      	bx	lr
    c42e:	bf00      	nop
    c430:	36f0      	adds	r6, #240	; 0xf0
    c432:	0001      	lsls	r1, r0, #0
    c434:	fd5c ffff 	ldc2l	15, cr15, [ip, #-1020]	; 0xfffffc04
    c438:	392e      	subs	r1, #46	; 0x2e
    c43a:	0001      	lsls	r1, r0, #0

0000c43c <_ZN7android22QualcommCameraHardware24supportsSelectableZoneAfEv>:
    c43c:	4b0a      	ldr	r3, [pc, #40]	; (c468 <_ZN7android22QualcommCameraHardware24supportsSelectableZoneAfEv+0x2c>)
    c43e:	4a0b      	ldr	r2, [pc, #44]	; (c46c <_ZN7android22QualcommCameraHardware24supportsSelectableZoneAfEv+0x30>)
    c440:	447b      	add	r3, pc
    c442:	490b      	ldr	r1, [pc, #44]	; (c470 <_ZN7android22QualcommCameraHardware24supportsSelectableZoneAfEv+0x34>)
    c444:	589b      	ldr	r3, [r3, r2]
    c446:	4479      	add	r1, pc
    c448:	6809      	ldr	r1, [r1, #0]
    c44a:	f103 0254 	add.w	r2, r3, #84	; 0x54
    c44e:	6818      	ldr	r0, [r3, #0]
    c450:	4281      	cmp	r1, r0
    c452:	d103      	bne.n	c45c <_ZN7android22QualcommCameraHardware24supportsSelectableZoneAfEv+0x20>
    c454:	7a58      	ldrb	r0, [r3, #9]
    c456:	b108      	cbz	r0, c45c <_ZN7android22QualcommCameraHardware24supportsSelectableZoneAfEv+0x20>
    c458:	2001      	movs	r0, #1
    c45a:	e003      	b.n	c464 <_ZN7android22QualcommCameraHardware24supportsSelectableZoneAfEv+0x28>
    c45c:	330c      	adds	r3, #12
    c45e:	4293      	cmp	r3, r2
    c460:	d1f5      	bne.n	c44e <_ZN7android22QualcommCameraHardware24supportsSelectableZoneAfEv+0x12>
    c462:	2000      	movs	r0, #0
    c464:	4770      	bx	lr
    c466:	bf00      	nop
    c468:	36b8      	adds	r6, #184	; 0xb8
    c46a:	0001      	lsls	r1, r0, #0
    c46c:	fd5c ffff 	ldc2l	15, cr15, [ip, #-1020]	; 0xfffffc04
    c470:	38f6      	subs	r0, #246	; 0xf6
    c472:	0001      	lsls	r1, r0, #0

0000c474 <_ZN7android22QualcommCameraHardware21supportsFaceDetectionEv>:
    c474:	4b0a      	ldr	r3, [pc, #40]	; (c4a0 <_ZN7android22QualcommCameraHardware21supportsFaceDetectionEv+0x2c>)
    c476:	4a0b      	ldr	r2, [pc, #44]	; (c4a4 <_ZN7android22QualcommCameraHardware21supportsFaceDetectionEv+0x30>)
    c478:	447b      	add	r3, pc
    c47a:	490b      	ldr	r1, [pc, #44]	; (c4a8 <_ZN7android22QualcommCameraHardware21supportsFaceDetectionEv+0x34>)
    c47c:	589b      	ldr	r3, [r3, r2]
    c47e:	4479      	add	r1, pc
    c480:	6809      	ldr	r1, [r1, #0]
    c482:	f103 0254 	add.w	r2, r3, #84	; 0x54
    c486:	6818      	ldr	r0, [r3, #0]
    c488:	4281      	cmp	r1, r0
    c48a:	d103      	bne.n	c494 <_ZN7android22QualcommCameraHardware21supportsFaceDetectionEv+0x20>
    c48c:	7a98      	ldrb	r0, [r3, #10]
    c48e:	b108      	cbz	r0, c494 <_ZN7android22QualcommCameraHardware21supportsFaceDetectionEv+0x20>
    c490:	2001      	movs	r0, #1
    c492:	e003      	b.n	c49c <_ZN7android22QualcommCameraHardware21supportsFaceDetectionEv+0x28>
    c494:	330c      	adds	r3, #12
    c496:	4293      	cmp	r3, r2
    c498:	d1f5      	bne.n	c486 <_ZN7android22QualcommCameraHardware21supportsFaceDetectionEv+0x12>
    c49a:	2000      	movs	r0, #0
    c49c:	4770      	bx	lr
    c49e:	bf00      	nop
    c4a0:	3680      	adds	r6, #128	; 0x80
    c4a2:	0001      	lsls	r1, r0, #0
    c4a4:	fd5c ffff 	ldc2l	15, cr15, [ip, #-1020]	; 0xfffffc04
    c4a8:	38be      	subs	r0, #190	; 0xbe
    c4aa:	0001      	lsls	r1, r0, #0

0000c4ac <_ZN7android22QualcommCameraHardware16recordingEnabledEv>:
    c4ac:	f890 3030 	ldrb.w	r3, [r0, #48]	; 0x30
    c4b0:	b13b      	cbz	r3, c4c2 <_ZN7android22QualcommCameraHardware16recordingEnabledEv+0x16>
    c4b2:	f8d0 13f4 	ldr.w	r1, [r0, #1012]	; 0x3f4
    c4b6:	b121      	cbz	r1, c4c2 <_ZN7android22QualcommCameraHardware16recordingEnabledEv+0x16>
    c4b8:	f8d0 03e8 	ldr.w	r0, [r0, #1000]	; 0x3e8
    c4bc:	f3c0 1040 	ubfx	r0, r0, #5, #1
    c4c0:	e000      	b.n	c4c4 <_ZN7android22QualcommCameraHardware16recordingEnabledEv+0x18>
    c4c2:	2000      	movs	r0, #0
    c4c4:	4770      	bx	lr
    c4c6:	bf00      	nop

0000c4c8 <_ZN7android22QualcommCameraHardware14previewEnabledEv>:
    c4c8:	f8d0 3454 	ldr.w	r3, [r0, #1108]	; 0x454
    c4cc:	b98b      	cbnz	r3, c4f2 <_ZN7android22QualcommCameraHardware14previewEnabledEv+0x2a>
    c4ce:	f890 1030 	ldrb.w	r1, [r0, #48]	; 0x30
    c4d2:	b171      	cbz	r1, c4f2 <_ZN7android22QualcommCameraHardware14previewEnabledEv+0x2a>
    c4d4:	f8d0 23f0 	ldr.w	r2, [r0, #1008]	; 0x3f0
    c4d8:	b15a      	cbz	r2, c4f2 <_ZN7android22QualcommCameraHardware14previewEnabledEv+0x2a>
    c4da:	f8d0 33e8 	ldr.w	r3, [r0, #1000]	; 0x3e8
    c4de:	06db      	lsls	r3, r3, #27
    c4e0:	d501      	bpl.n	c4e6 <_ZN7android22QualcommCameraHardware14previewEnabledEv+0x1e>
    c4e2:	2001      	movs	r0, #1
    c4e4:	e006      	b.n	c4f4 <_ZN7android22QualcommCameraHardware14previewEnabledEv+0x2c>
    c4e6:	f8d0 03e4 	ldr.w	r0, [r0, #996]	; 0x3e4
    c4ea:	3800      	subs	r0, #0
    c4ec:	bf18      	it	ne
    c4ee:	2001      	movne	r0, #1
    c4f0:	e000      	b.n	c4f4 <_ZN7android22QualcommCameraHardware14previewEnabledEv+0x2c>
    c4f2:	2000      	movs	r0, #0
    c4f4:	4770      	bx	lr
    c4f6:	bf00      	nop

0000c4f8 <_ZN7android22QualcommCameraHardware10MMCameraDL7pointerEv>:
    c4f8:	6880      	ldr	r0, [r0, #8]
    c4fa:	4770      	bx	lr

0000c4fc <_ZN7android22QualcommCameraHardware14msgTypeEnabledEi>:
    c4fc:	f8d0 33e8 	ldr.w	r3, [r0, #1000]	; 0x3e8
    c500:	4219      	tst	r1, r3
    c502:	bf0c      	ite	eq
    c504:	2000      	moveq	r0, #0
    c506:	2001      	movne	r0, #1
    c508:	4770      	bx	lr
    c50a:	bf00      	nop

0000c50c <_ZN7android22QualcommCameraHardware10useOverlayEv>:
    c50c:	4906      	ldr	r1, [pc, #24]	; (c528 <_ZN7android22QualcommCameraHardware10useOverlayEv+0x1c>)
    c50e:	4479      	add	r1, pc
    c510:	6809      	ldr	r1, [r1, #0]
    c512:	1f4b      	subs	r3, r1, #5
    c514:	2b01      	cmp	r3, #1
    c516:	d801      	bhi.n	c51c <_ZN7android22QualcommCameraHardware10useOverlayEv+0x10>
    c518:	2301      	movs	r3, #1
    c51a:	e000      	b.n	c51e <_ZN7android22QualcommCameraHardware10useOverlayEv+0x12>
    c51c:	2300      	movs	r3, #0
    c51e:	f880 33e1 	strb.w	r3, [r0, #993]	; 0x3e1
    c522:	f890 03e1 	ldrb.w	r0, [r0, #993]	; 0x3e1
    c526:	4770      	bx	lr
    c528:	382e      	subs	r0, #46	; 0x2e
    c52a:	0001      	lsls	r1, r0, #0

0000c52c <_ZN7android22QualcommCameraHardware24receive_autofocus_switchE16cam_afCtrlMode_t>:
    c52c:	b510      	push	{r4, lr}
    c52e:	f8d0 43ec 	ldr.w	r4, [r0, #1004]	; 0x3ec
    c532:	4603      	mov	r3, r0
    c534:	b12c      	cbz	r4, c542 <_ZN7android22QualcommCameraHardware24receive_autofocus_switchE16cam_afCtrlMode_t+0x16>
    c536:	f44f 6000 	mov.w	r0, #2048	; 0x800
    c53a:	2200      	movs	r2, #0
    c53c:	f8d3 33f8 	ldr.w	r3, [r3, #1016]	; 0x3f8
    c540:	47a0      	blx	r4
    c542:	bd10      	pop	{r4, pc}

0000c544 <HAL_isIn3DMode>:
    c544:	4803      	ldr	r0, [pc, #12]	; (c554 <HAL_isIn3DMode+0x10>)
    c546:	4478      	add	r0, pc
    c548:	6800      	ldr	r0, [r0, #0]
    c54a:	2802      	cmp	r0, #2
    c54c:	bf14      	ite	ne
    c54e:	2000      	movne	r0, #0
    c550:	2001      	moveq	r0, #1
    c552:	4770      	bx	lr
    c554:	38e6      	subs	r0, #230	; 0xe6
    c556:	0001      	lsls	r1, r0, #0

0000c558 <_ZNK7android6VectorIP9msm_frameE12do_constructEPvj>:
    c558:	4770      	bx	lr
    c55a:	bf00      	nop

0000c55c <_ZNK7android6VectorIP9msm_frameE10do_destroyEPvj>:
    c55c:	4770      	bx	lr
    c55e:	bf00      	nop

0000c560 <_ZNK7android6VectorIP9msm_frameE8do_splatEPvPKvj>:
    c560:	b510      	push	{r4, lr}
    c562:	2000      	movs	r0, #0
    c564:	e003      	b.n	c56e <_ZNK7android6VectorIP9msm_frameE8do_splatEPvPKvj+0xe>
    c566:	6814      	ldr	r4, [r2, #0]
    c568:	3b01      	subs	r3, #1
    c56a:	500c      	str	r4, [r1, r0]
    c56c:	3004      	adds	r0, #4
    c56e:	2b00      	cmp	r3, #0
    c570:	d1f9      	bne.n	c566 <_ZNK7android6VectorIP9msm_frameE8do_splatEPvPKvj+0x6>
    c572:	bd10      	pop	{r4, pc}
    c574:	4b08      	ldr	r3, [pc, #32]	; (c598 <_ZNK7android6VectorIP9msm_frameE8do_splatEPvPKvj+0x38>)
    c576:	b510      	push	{r4, lr}
    c578:	4604      	mov	r4, r0
    c57a:	4808      	ldr	r0, [pc, #32]	; (c59c <_ZNK7android6VectorIP9msm_frameE8do_splatEPvPKvj+0x3c>)
    c57c:	447b      	add	r3, pc
    c57e:	5819      	ldr	r1, [r3, r0]
    c580:	4620      	mov	r0, r4
    c582:	f101 030c 	add.w	r3, r1, #12
    c586:	f111 029c 	adds.w	r2, r1, #156	; 0x9c
    c58a:	f840 3b04 	str.w	r3, [r0], #4
    c58e:	6062      	str	r2, [r4, #4]
    c590:	f7ff ebc0 	blx	bd14 <_ZN7android22QualcommCameraHardware22supportsSceneDetectionEv-0x6f0>
    c594:	4620      	mov	r0, r4
    c596:	bd10      	pop	{r4, pc}
    c598:	357c      	adds	r5, #124	; 0x7c
    c59a:	0001      	lsls	r1, r0, #0
    c59c:	fd60 ffff 	stc2l	15, cr15, [r0, #-1020]!	; 0xfffffc04

0000c5a0 <_ZTv0_n12_N7android23CameraHardwareInterfaceD1Ev>:
    c5a0:	b510      	push	{r4, lr}
    c5a2:	6801      	ldr	r1, [r0, #0]
    c5a4:	f851 3c0c 	ldr.w	r3, [r1, #-12]
    c5a8:	18c0      	adds	r0, r0, r3
    c5aa:	f7ff ffe3 	bl	c574 <_ZNK7android6VectorIP9msm_frameE8do_splatEPvPKvj+0x14>
    c5ae:	bd10      	pop	{r4, pc}
    c5b0:	b510      	push	{r4, lr}
    c5b2:	4604      	mov	r4, r0
    c5b4:	f7ff ffde 	bl	c574 <_ZNK7android6VectorIP9msm_frameE8do_splatEPvPKvj+0x14>
    c5b8:	4620      	mov	r0, r4
    c5ba:	f7ff ebb2 	blx	bd20 <_ZN7android22QualcommCameraHardware22supportsSceneDetectionEv-0x6e4>
    c5be:	4620      	mov	r0, r4
    c5c0:	bd10      	pop	{r4, pc}
    c5c2:	bf00      	nop

0000c5c4 <_ZTv0_n12_N7android23CameraHardwareInterfaceD0Ev>:
    c5c4:	b510      	push	{r4, lr}
    c5c6:	6801      	ldr	r1, [r0, #0]
    c5c8:	f851 3c0c 	ldr.w	r3, [r1, #-12]
    c5cc:	18c0      	adds	r0, r0, r3
    c5ce:	f7ff ffef 	bl	c5b0 <_ZTv0_n12_N7android23CameraHardwareInterfaceD1Ev+0x10>
    c5d2:	bd10      	pop	{r4, pc}

0000c5d4 <_ZNK7android12SortedVectorINS_16key_value_pair_tINS_7String8ES2_EEE12do_constructEPvj>:
    c5d4:	b570      	push	{r4, r5, r6, lr}
    c5d6:	4615      	mov	r5, r2
    c5d8:	460c      	mov	r4, r1
    c5da:	e009      	b.n	c5f0 <_ZNK7android12SortedVectorINS_16key_value_pair_tINS_7String8ES2_EEE12do_constructEPvj+0x1c>
    c5dc:	4620      	mov	r0, r4
    c5de:	f104 0608 	add.w	r6, r4, #8
    c5e2:	f7ff eba4 	blx	bd2c <_ZN7android22QualcommCameraHardware22supportsSceneDetectionEv-0x6d8>
    c5e6:	1d20      	adds	r0, r4, #4
    c5e8:	f7ff eba0 	blx	bd2c <_ZN7android22QualcommCameraHardware22supportsSceneDetectionEv-0x6d8>
    c5ec:	3d01      	subs	r5, #1
    c5ee:	4634      	mov	r4, r6
    c5f0:	2d00      	cmp	r5, #0
    c5f2:	d1f3      	bne.n	c5dc <_ZNK7android12SortedVectorINS_16key_value_pair_tINS_7String8ES2_EEE12do_constructEPvj+0x8>
    c5f4:	bd70      	pop	{r4, r5, r6, pc}
    c5f6:	bf00      	nop
    c5f8:	b510      	push	{r4, lr}
    c5fa:	4604      	mov	r4, r0
    c5fc:	3004      	adds	r0, #4
    c5fe:	f7ff eb9c 	blx	bd38 <_ZN7android22QualcommCameraHardware22supportsSceneDetectionEv-0x6cc>
    c602:	4620      	mov	r0, r4
    c604:	f7ff eb98 	blx	bd38 <_ZN7android22QualcommCameraHardware22supportsSceneDetectionEv-0x6cc>
    c608:	4620      	mov	r0, r4
    c60a:	bd10      	pop	{r4, pc}

0000c60c <_ZNK7android12SortedVectorINS_16key_value_pair_tINS_7String8ES2_EEE10do_destroyEPvj>:
    c60c:	b570      	push	{r4, r5, r6, lr}
    c60e:	4615      	mov	r5, r2
    c610:	460c      	mov	r4, r1
    c612:	e004      	b.n	c61e <_ZNK7android12SortedVectorINS_16key_value_pair_tINS_7String8ES2_EEE10do_destroyEPvj+0x12>
    c614:	4620      	mov	r0, r4
    c616:	3d01      	subs	r5, #1
    c618:	f7ff ffee 	bl	c5f8 <_ZNK7android12SortedVectorINS_16key_value_pair_tINS_7String8ES2_EEE12do_constructEPvj+0x24>
    c61c:	3408      	adds	r4, #8
    c61e:	2d00      	cmp	r5, #0
    c620:	d1f8      	bne.n	c614 <_ZNK7android12SortedVectorINS_16key_value_pair_tINS_7String8ES2_EEE10do_destroyEPvj+0x8>
    c622:	bd70      	pop	{r4, r5, r6, pc}
    c624:	b510      	push	{r4, lr}
    c626:	2100      	movs	r1, #0
    c628:	4604      	mov	r4, r0
    c62a:	f7ff eb8c 	blx	bd44 <_ZN7android22QualcommCameraHardware22supportsSceneDetectionEv-0x6c0>
    c62e:	4620      	mov	r0, r4
    c630:	bd10      	pop	{r4, pc}
    c632:	bf00      	nop
    c634:	b510      	push	{r4, lr}
    c636:	2100      	movs	r1, #0
    c638:	4604      	mov	r4, r0
    c63a:	f7ff eb8a 	blx	bd50 <_ZN7android22QualcommCameraHardware22supportsSceneDetectionEv-0x6b4>
    c63e:	4620      	mov	r0, r4
    c640:	bd10      	pop	{r4, pc}
    c642:	bf00      	nop

0000c644 <_ZN7android2wpINS_22QualcommCameraHardware10MMCameraDLEED1Ev>:
    c644:	b510      	push	{r4, lr}
    c646:	6803      	ldr	r3, [r0, #0]
    c648:	4604      	mov	r4, r0
    c64a:	b11b      	cbz	r3, c654 <_ZN7android2wpINS_22QualcommCameraHardware10MMCameraDLEED1Ev+0x10>
    c64c:	6840      	ldr	r0, [r0, #4]
    c64e:	4621      	mov	r1, r4
    c650:	f7ff eb84 	blx	bd5c <_ZN7android22QualcommCameraHardware22supportsSceneDetectionEv-0x6a8>
    c654:	4620      	mov	r0, r4
    c656:	bd10      	pop	{r4, pc}

0000c658 <_ZN7android2wpINS_22QualcommCameraHardwareEED1Ev>:
    c658:	b510      	push	{r4, lr}
    c65a:	6803      	ldr	r3, [r0, #0]
    c65c:	4604      	mov	r4, r0
    c65e:	b11b      	cbz	r3, c668 <_ZN7android2wpINS_22QualcommCameraHardwareEED1Ev+0x10>
    c660:	6840      	ldr	r0, [r0, #4]
    c662:	4621      	mov	r1, r4
    c664:	f7ff eb7a 	blx	bd5c <_ZN7android22QualcommCameraHardware22supportsSceneDetectionEv-0x6a8>
    c668:	4620      	mov	r0, r4
    c66a:	bd10      	pop	{r4, pc}
    c66c:	b510      	push	{r4, lr}
    c66e:	4604      	mov	r4, r0
    c670:	f7ff eb7a 	blx	bd68 <_ZN7android22QualcommCameraHardware22supportsSceneDetectionEv-0x69c>
    c674:	4620      	mov	r0, r4
    c676:	bd10      	pop	{r4, pc}
    c678:	b510      	push	{r4, lr}
    c67a:	4604      	mov	r4, r0
    c67c:	f7ff eb7a 	blx	bd74 <_ZN7android22QualcommCameraHardware22supportsSceneDetectionEv-0x690>
    c680:	4620      	mov	r0, r4
    c682:	bd10      	pop	{r4, pc}

0000c684 <_ZN7android22QualcommCameraHardware16isValidDimensionEii>:
    c684:	f8df c08c 	ldr.w	ip, [pc, #140]	; c714 <_ZN7android22QualcommCameraHardware16isValidDimensionEii+0x90>
    c688:	b537      	push	{r0, r1, r2, r4, r5, lr}
    c68a:	44fc      	add	ip, pc
    c68c:	460d      	mov	r5, r1
    c68e:	4614      	mov	r4, r2
    c690:	f8dc 1008 	ldr.w	r1, [ip, #8]
    c694:	f8dc 2004 	ldr.w	r2, [ip, #4]
    c698:	4b1f      	ldr	r3, [pc, #124]	; (c718 <_ZN7android22QualcommCameraHardware16isValidDimensionEii+0x94>)
    c69a:	9100      	str	r1, [sp, #0]
    c69c:	9201      	str	r2, [sp, #4]
    c69e:	447b      	add	r3, pc
    c6a0:	f8d0 2180 	ldr.w	r2, [r0, #384]	; 0x180
    c6a4:	b172      	cbz	r2, c6c4 <_ZN7android22QualcommCameraHardware16isValidDimensionEii+0x40>
    c6a6:	481d      	ldr	r0, [pc, #116]	; (c71c <_ZN7android22QualcommCameraHardware16isValidDimensionEii+0x98>)
    c6a8:	581b      	ldr	r3, [r3, r0]
    c6aa:	681b      	ldr	r3, [r3, #0]
    c6ac:	b11b      	cbz	r3, c6b6 <_ZN7android22QualcommCameraHardware16isValidDimensionEii+0x32>
    c6ae:	a801      	add	r0, sp, #4
    c6b0:	4669      	mov	r1, sp
    c6b2:	4798      	blx	r3
    c6b4:	e006      	b.n	c6c4 <_ZN7android22QualcommCameraHardware16isValidDimensionEii+0x40>
    c6b6:	491a      	ldr	r1, [pc, #104]	; (c720 <_ZN7android22QualcommCameraHardware16isValidDimensionEii+0x9c>)
    c6b8:	2006      	movs	r0, #6
    c6ba:	4a1a      	ldr	r2, [pc, #104]	; (c724 <_ZN7android22QualcommCameraHardware16isValidDimensionEii+0xa0>)
    c6bc:	4479      	add	r1, pc
    c6be:	447a      	add	r2, pc
    c6c0:	f7ff eb5e 	blx	bd80 <_ZN7android22QualcommCameraHardware22supportsSceneDetectionEv-0x684>
    c6c4:	f105 020f 	add.w	r2, r5, #15
    c6c8:	f64f 7cf0 	movw	ip, #65520	; 0xfff0
    c6cc:	ea02 010c 	and.w	r1, r2, ip
    c6d0:	428d      	cmp	r5, r1
    c6d2:	d11c      	bne.n	c70e <_ZN7android22QualcommCameraHardware16isValidDimensionEii+0x8a>
    c6d4:	f104 010f 	add.w	r1, r4, #15
    c6d8:	f64f 70f0 	movw	r0, #65520	; 0xfff0
    c6dc:	ea01 0300 	and.w	r3, r1, r0
    c6e0:	429c      	cmp	r4, r3
    c6e2:	d114      	bne.n	c70e <_ZN7android22QualcommCameraHardware16isValidDimensionEii+0x8a>
    c6e4:	9a01      	ldr	r2, [sp, #4]
    c6e6:	4295      	cmp	r5, r2
    c6e8:	dc11      	bgt.n	c70e <_ZN7android22QualcommCameraHardware16isValidDimensionEii+0x8a>
    c6ea:	9b00      	ldr	r3, [sp, #0]
    c6ec:	429c      	cmp	r4, r3
    c6ee:	dc0e      	bgt.n	c70e <_ZN7android22QualcommCameraHardware16isValidDimensionEii+0x8a>
    c6f0:	0328      	lsls	r0, r5, #12
    c6f2:	4621      	mov	r1, r4
    c6f4:	f7ff eb4a 	blx	bd8c <_ZN7android22QualcommCameraHardware22supportsSceneDetectionEv-0x678>
    c6f8:	4a0b      	ldr	r2, [pc, #44]	; (c728 <_ZN7android22QualcommCameraHardware16isValidDimensionEii+0xa4>)
    c6fa:	2300      	movs	r3, #0
    c6fc:	447a      	add	r2, pc
    c6fe:	58d1      	ldr	r1, [r2, r3]
    c700:	4281      	cmp	r1, r0
    c702:	d101      	bne.n	c708 <_ZN7android22QualcommCameraHardware16isValidDimensionEii+0x84>
    c704:	2001      	movs	r0, #1
    c706:	e003      	b.n	c710 <_ZN7android22QualcommCameraHardware16isValidDimensionEii+0x8c>
    c708:	330c      	adds	r3, #12
    c70a:	2b48      	cmp	r3, #72	; 0x48
    c70c:	d1f7      	bne.n	c6fe <_ZN7android22QualcommCameraHardware16isValidDimensionEii+0x7a>
    c70e:	2000      	movs	r0, #0
    c710:	bd3e      	pop	{r1, r2, r3, r4, r5, pc}
    c712:	bf00      	nop
    c714:	37a2      	adds	r7, #162	; 0xa2
    c716:	0001      	lsls	r1, r0, #0
    c718:	345a      	adds	r4, #90	; 0x5a
    c71a:	0001      	lsls	r1, r0, #0
    c71c:	fd64 ffff 	stc2l	15, cr15, [r4, #-1020]!	; 0xfffffc04
    c720:	dd10      	ble.n	c744 <_ZN7android22QualcommCameraHardware19hasAutoFocusSupportEv+0x18>
    c722:	0000      	lsls	r0, r0, #0
    c724:	dd25      	ble.n	c772 <_ZN7android22QualcommCameraHardware19hasAutoFocusSupportEv+0x46>
    c726:	0000      	lsls	r0, r0, #0
    c728:	da1c      	bge.n	c764 <_ZN7android22QualcommCameraHardware19hasAutoFocusSupportEv+0x38>
	...

0000c72c <_ZN7android22QualcommCameraHardware19hasAutoFocusSupportEv>:
    c72c:	4b0f      	ldr	r3, [pc, #60]	; (c76c <_ZN7android22QualcommCameraHardware19hasAutoFocusSupportEv+0x40>)
    c72e:	4a10      	ldr	r2, [pc, #64]	; (c770 <_ZN7android22QualcommCameraHardware19hasAutoFocusSupportEv+0x44>)
    c730:	447b      	add	r3, pc
    c732:	b570      	push	{r4, r5, r6, lr}
    c734:	4604      	mov	r4, r0
    c736:	5898      	ldr	r0, [r3, r2]
    c738:	6903      	ldr	r3, [r0, #16]
    c73a:	2004      	movs	r0, #4
    c73c:	4798      	blx	r3
    c73e:	b2c5      	uxtb	r5, r0
    c740:	b94d      	cbnz	r5, c756 <_ZN7android22QualcommCameraHardware19hasAutoFocusSupportEv+0x2a>
    c742:	490c      	ldr	r1, [pc, #48]	; (c774 <_ZN7android22QualcommCameraHardware19hasAutoFocusSupportEv+0x48>)
    c744:	2004      	movs	r0, #4
    c746:	4a0c      	ldr	r2, [pc, #48]	; (c778 <_ZN7android22QualcommCameraHardware19hasAutoFocusSupportEv+0x4c>)
    c748:	4479      	add	r1, pc
    c74a:	447a      	add	r2, pc
    c74c:	f7ff eb18 	blx	bd80 <_ZN7android22QualcommCameraHardware22supportsSceneDetectionEv-0x684>
    c750:	f884 541c 	strb.w	r5, [r4, #1052]	; 0x41c
    c754:	e002      	b.n	c75c <_ZN7android22QualcommCameraHardware19hasAutoFocusSupportEv+0x30>
    c756:	2101      	movs	r1, #1
    c758:	f884 141c 	strb.w	r1, [r4, #1052]	; 0x41c
    c75c:	f8d4 3454 	ldr.w	r3, [r4, #1108]	; 0x454
    c760:	b113      	cbz	r3, c768 <_ZN7android22QualcommCameraHardware19hasAutoFocusSupportEv+0x3c>
    c762:	2000      	movs	r0, #0
    c764:	f884 041c 	strb.w	r0, [r4, #1052]	; 0x41c
    c768:	bd70      	pop	{r4, r5, r6, pc}
    c76a:	bf00      	nop
    c76c:	33c8      	adds	r3, #200	; 0xc8
    c76e:	0001      	lsls	r1, r0, #0
    c770:	fd68 ffff 	stc2l	15, cr15, [r8, #-1020]!	; 0xfffffc04
    c774:	dc84      	bgt.n	c680 <_ZN7android2wpINS_22QualcommCameraHardwareEED1Ev+0x28>
    c776:	0000      	lsls	r0, r0, #0
    c778:	dcba      	bgt.n	c6f0 <_ZN7android22QualcommCameraHardware16isValidDimensionEii+0x6c>
	...

0000c77c <HAL_getCameraInfo>:
    c77c:	e92d 41f0 	stmdb	sp!, {r4, r5, r6, r7, r8, lr}
    c780:	4e5f      	ldr	r6, [pc, #380]	; (c900 <HAL_getCameraInfo+0x184>)
    c782:	460c      	mov	r4, r1
    c784:	495f      	ldr	r1, [pc, #380]	; (c904 <HAL_getCameraInfo+0x188>)
    c786:	447e      	add	r6, pc
    c788:	4605      	mov	r5, r0
    c78a:	b09a      	sub	sp, #104	; 0x68
    c78c:	5870      	ldr	r0, [r6, r1]
    c78e:	6803      	ldr	r3, [r0, #0]
    c790:	9319      	str	r3, [sp, #100]	; 0x64
    c792:	b93c      	cbnz	r4, c7a4 <HAL_getCameraInfo+0x28>
    c794:	495c      	ldr	r1, [pc, #368]	; (c908 <HAL_getCameraInfo+0x18c>)
    c796:	2006      	movs	r0, #6
    c798:	4a5c      	ldr	r2, [pc, #368]	; (c90c <HAL_getCameraInfo+0x190>)
    c79a:	4479      	add	r1, pc
    c79c:	447a      	add	r2, pc
    c79e:	f7ff eaf0 	blx	bd80 <_ZN7android22QualcommCameraHardware22supportsSceneDetectionEv-0x684>
    c7a2:	e0a0      	b.n	c8e6 <HAL_getCameraInfo+0x16a>
    c7a4:	485a      	ldr	r0, [pc, #360]	; (c910 <HAL_getCameraInfo+0x194>)
    c7a6:	a902      	add	r1, sp, #8
    c7a8:	4a5a      	ldr	r2, [pc, #360]	; (c914 <HAL_getCameraInfo+0x198>)
    c7aa:	4478      	add	r0, pc
    c7ac:	447a      	add	r2, pc
    c7ae:	f7ff eaf4 	blx	bd98 <_ZN7android22QualcommCameraHardware22supportsSceneDetectionEv-0x66c>
    c7b2:	f8df c164 	ldr.w	ip, [pc, #356]	; c918 <HAL_getCameraInfo+0x19c>
    c7b6:	2300      	movs	r3, #0
    c7b8:	44fc      	add	ip, pc
    c7ba:	f8dc 200c 	ldr.w	r2, [ip, #12]
    c7be:	e087      	b.n	c8d0 <HAL_getCameraInfo+0x154>
    c7c0:	42ab      	cmp	r3, r5
    c7c2:	f040 8084 	bne.w	c8ce <HAL_getCameraInfo+0x152>
    c7c6:	4955      	ldr	r1, [pc, #340]	; (c91c <HAL_getCameraInfo+0x1a0>)
    c7c8:	462b      	mov	r3, r5
    c7ca:	4a55      	ldr	r2, [pc, #340]	; (c920 <HAL_getCameraInfo+0x1a4>)
    c7cc:	2004      	movs	r0, #4
    c7ce:	4479      	add	r1, pc
    c7d0:	447a      	add	r2, pc
    c7d2:	f7ff ead6 	blx	bd80 <_ZN7android22QualcommCameraHardware22supportsSceneDetectionEv-0x684>
    c7d6:	4853      	ldr	r0, [pc, #332]	; (c924 <HAL_getCameraInfo+0x1a8>)
    c7d8:	4478      	add	r0, pc
    c7da:	eb00 1705 	add.w	r7, r0, r5, lsl #4
    c7de:	3708      	adds	r7, #8
    c7e0:	693b      	ldr	r3, [r7, #16]
    c7e2:	1e1a      	subs	r2, r3, #0
    c7e4:	bf18      	it	ne
    c7e6:	2201      	movne	r2, #1
    c7e8:	6022      	str	r2, [r4, #0]
    c7ea:	b9b2      	cbnz	r2, c81a <HAL_getCameraInfo+0x9e>
    c7ec:	494e      	ldr	r1, [pc, #312]	; (c928 <HAL_getCameraInfo+0x1ac>)
    c7ee:	f10d 0808 	add.w	r8, sp, #8
    c7f2:	4640      	mov	r0, r8
    c7f4:	2208      	movs	r2, #8
    c7f6:	4479      	add	r1, pc
    c7f8:	f7ff ead4 	blx	bda4 <_ZN7android22QualcommCameraHardware22supportsSceneDetectionEv-0x660>
    c7fc:	b168      	cbz	r0, c81a <HAL_getCameraInfo+0x9e>
    c7fe:	494b      	ldr	r1, [pc, #300]	; (c92c <HAL_getCameraInfo+0x1b0>)
    c800:	4640      	mov	r0, r8
    c802:	2208      	movs	r2, #8
    c804:	4479      	add	r1, pc
    c806:	f7ff eace 	blx	bda4 <_ZN7android22QualcommCameraHardware22supportsSceneDetectionEv-0x660>
    c80a:	b130      	cbz	r0, c81a <HAL_getCameraInfo+0x9e>
    c80c:	4948      	ldr	r1, [pc, #288]	; (c930 <HAL_getCameraInfo+0x1b4>)
    c80e:	4640      	mov	r0, r8
    c810:	2207      	movs	r2, #7
    c812:	4479      	add	r1, pc
    c814:	f7ff eac6 	blx	bda4 <_ZN7android22QualcommCameraHardware22supportsSceneDetectionEv-0x660>
    c818:	b908      	cbnz	r0, c81e <HAL_getCameraInfo+0xa2>
    c81a:	697b      	ldr	r3, [r7, #20]
    c81c:	e007      	b.n	c82e <HAL_getCameraInfo+0xb2>
    c81e:	4945      	ldr	r1, [pc, #276]	; (c934 <HAL_getCameraInfo+0x1b8>)
    c820:	4640      	mov	r0, r8
    c822:	2207      	movs	r2, #7
    c824:	4479      	add	r1, pc
    c826:	f7ff eabe 	blx	bda4 <_ZN7android22QualcommCameraHardware22supportsSceneDetectionEv-0x660>
    c82a:	697b      	ldr	r3, [r7, #20]
    c82c:	b908      	cbnz	r0, c832 <HAL_getCameraInfo+0xb6>
    c82e:	60a3      	str	r3, [r4, #8]
    c830:	e006      	b.n	c840 <HAL_getCameraInfo+0xc4>
    c832:	f5c3 70e1 	rsb	r0, r3, #450	; 0x1c2
    c836:	f44f 71b4 	mov.w	r1, #360	; 0x168
    c83a:	f7ff eaba 	blx	bdb0 <_ZN7android22QualcommCameraHardware22supportsSceneDetectionEv-0x654>
    c83e:	60a1      	str	r1, [r4, #8]
    c840:	68a0      	ldr	r0, [r4, #8]
    c842:	4b3d      	ldr	r3, [pc, #244]	; (c938 <HAL_getCameraInfo+0x1bc>)
    c844:	493d      	ldr	r1, [pc, #244]	; (c93c <HAL_getCameraInfo+0x1c0>)
    c846:	4a3e      	ldr	r2, [pc, #248]	; (c940 <HAL_getCameraInfo+0x1c4>)
    c848:	447b      	add	r3, pc
    c84a:	3348      	adds	r3, #72	; 0x48
    c84c:	4479      	add	r1, pc
    c84e:	447a      	add	r2, pc
    c850:	9000      	str	r0, [sp, #0]
    c852:	2004      	movs	r0, #4
    c854:	f7ff ea94 	blx	bd80 <_ZN7android22QualcommCameraHardware22supportsSceneDetectionEv-0x684>
    c858:	f8df c0e8 	ldr.w	ip, [pc, #232]	; c944 <HAL_getCameraInfo+0x1c8>
    c85c:	2300      	movs	r3, #0
    c85e:	6063      	str	r3, [r4, #4]
    c860:	44fc      	add	ip, pc
    c862:	eb0c 1105 	add.w	r1, ip, r5, lsl #4
    c866:	690a      	ldr	r2, [r1, #16]
    c868:	07d1      	lsls	r1, r2, #31
    c86a:	d501      	bpl.n	c870 <HAL_getCameraInfo+0xf4>
    c86c:	2201      	movs	r2, #1
    c86e:	6062      	str	r2, [r4, #4]
    c870:	4b35      	ldr	r3, [pc, #212]	; (c948 <HAL_getCameraInfo+0x1cc>)
    c872:	f8df e0d8 	ldr.w	lr, [pc, #216]	; c94c <HAL_getCameraInfo+0x1d0>
    c876:	447b      	add	r3, pc
    c878:	eb03 1c05 	add.w	ip, r3, r5, lsl #4
    c87c:	44fe      	add	lr, pc
    c87e:	eb0e 1505 	add.w	r5, lr, r5, lsl #4
    c882:	f8dc 0010 	ldr.w	r0, [ip, #16]
    c886:	0782      	lsls	r2, r0, #30
    c888:	bf42      	ittt	mi
    c88a:	6860      	ldrmi	r0, [r4, #4]
    c88c:	f040 0002 	orrmi.w	r0, r0, #2
    c890:	6060      	strmi	r0, [r4, #4]
    c892:	69a9      	ldr	r1, [r5, #24]
    c894:	b951      	cbnz	r1, c8ac <HAL_getCameraInfo+0x130>
    c896:	492e      	ldr	r1, [pc, #184]	; (c950 <HAL_getCameraInfo+0x1d4>)
    c898:	a802      	add	r0, sp, #8
    c89a:	2207      	movs	r2, #7
    c89c:	4479      	add	r1, pc
    c89e:	f7ff ea82 	blx	bda4 <_ZN7android22QualcommCameraHardware22supportsSceneDetectionEv-0x660>
    c8a2:	b918      	cbnz	r0, c8ac <HAL_getCameraInfo+0x130>
    c8a4:	6862      	ldr	r2, [r4, #4]
    c8a6:	f042 0308 	orr.w	r3, r2, #8
    c8aa:	e002      	b.n	c8b2 <HAL_getCameraInfo+0x136>
    c8ac:	6861      	ldr	r1, [r4, #4]
    c8ae:	f041 0304 	orr.w	r3, r1, #4
    c8b2:	6063      	str	r3, [r4, #4]
    c8b4:	4b27      	ldr	r3, [pc, #156]	; (c954 <HAL_getCameraInfo+0x1d8>)
    c8b6:	6860      	ldr	r0, [r4, #4]
    c8b8:	4927      	ldr	r1, [pc, #156]	; (c958 <HAL_getCameraInfo+0x1dc>)
    c8ba:	447b      	add	r3, pc
    c8bc:	4a27      	ldr	r2, [pc, #156]	; (c95c <HAL_getCameraInfo+0x1e0>)
    c8be:	3348      	adds	r3, #72	; 0x48
    c8c0:	9000      	str	r0, [sp, #0]
    c8c2:	4479      	add	r1, pc
    c8c4:	447a      	add	r2, pc
    c8c6:	2004      	movs	r0, #4
    c8c8:	f7ff ea5a 	blx	bd80 <_ZN7android22QualcommCameraHardware22supportsSceneDetectionEv-0x684>
    c8cc:	e00b      	b.n	c8e6 <HAL_getCameraInfo+0x16a>
    c8ce:	3301      	adds	r3, #1
    c8d0:	4293      	cmp	r3, r2
    c8d2:	f6ff af75 	blt.w	c7c0 <HAL_getCameraInfo+0x44>
    c8d6:	4922      	ldr	r1, [pc, #136]	; (c960 <HAL_getCameraInfo+0x1e4>)
    c8d8:	2006      	movs	r0, #6
    c8da:	4a22      	ldr	r2, [pc, #136]	; (c964 <HAL_getCameraInfo+0x1e8>)
    c8dc:	462b      	mov	r3, r5
    c8de:	4479      	add	r1, pc
    c8e0:	447a      	add	r2, pc
    c8e2:	f7ff ea4e 	blx	bd80 <_ZN7android22QualcommCameraHardware22supportsSceneDetectionEv-0x684>
    c8e6:	f8df e01c 	ldr.w	lr, [pc, #28]	; c904 <HAL_getCameraInfo+0x188>
    c8ea:	9a19      	ldr	r2, [sp, #100]	; 0x64
    c8ec:	f856 000e 	ldr.w	r0, [r6, lr]
    c8f0:	6801      	ldr	r1, [r0, #0]
    c8f2:	428a      	cmp	r2, r1
    c8f4:	d001      	beq.n	c8fa <HAL_getCameraInfo+0x17e>
    c8f6:	f7ff ea62 	blx	bdbc <_ZN7android22QualcommCameraHardware22supportsSceneDetectionEv-0x648>
    c8fa:	b01a      	add	sp, #104	; 0x68
    c8fc:	e8bd 81f0 	ldmia.w	sp!, {r4, r5, r6, r7, r8, pc}
    c900:	3372      	adds	r3, #114	; 0x72
    c902:	0001      	lsls	r1, r0, #0
    c904:	fd6c ffff 	stc2l	15, cr15, [ip, #-1020]!	; 0xfffffc04
    c908:	dc32      	bgt.n	c970 <_ZN7android22QualcommCameraHardware15storeTargetTypeEv+0x8>
    c90a:	0000      	lsls	r0, r0, #0
    c90c:	dc83      	bgt.n	c816 <HAL_getCameraInfo+0x9a>
    c90e:	0000      	lsls	r0, r0, #0
    c910:	dc88      	bgt.n	c824 <HAL_getCameraInfo+0xa8>
    c912:	0000      	lsls	r0, r0, #0
    c914:	dc97      	bgt.n	c846 <HAL_getCameraInfo+0xca>
    c916:	0000      	lsls	r0, r0, #0
    c918:	3674      	adds	r6, #116	; 0x74
    c91a:	0001      	lsls	r1, r0, #0
    c91c:	dbfe      	blt.n	c91c <HAL_getCameraInfo+0x1a0>
    c91e:	0000      	lsls	r0, r0, #0
    c920:	dc75      	bgt.n	ca0e <_ZN7android22QualcommCameraHardware15storeTargetTypeEv+0xa6>
    c922:	0000      	lsls	r0, r0, #0
    c924:	3654      	adds	r6, #84	; 0x54
    c926:	0001      	lsls	r1, r0, #0
    c928:	dc76      	bgt.n	ca18 <_ZN7android22QualcommCameraHardware15storeTargetTypeEv+0xb0>
    c92a:	0000      	lsls	r0, r0, #0
    c92c:	dc71      	bgt.n	ca12 <_ZN7android22QualcommCameraHardware15storeTargetTypeEv+0xaa>
    c92e:	0000      	lsls	r0, r0, #0
    c930:	dc6c      	bgt.n	ca0c <_ZN7android22QualcommCameraHardware15storeTargetTypeEv+0xa4>
    c932:	0000      	lsls	r0, r0, #0
    c934:	dc62      	bgt.n	c9fc <_ZN7android22QualcommCameraHardware15storeTargetTypeEv+0x94>
    c936:	0000      	lsls	r0, r0, #0
    c938:	d8d0      	bhi.n	c8dc <HAL_getCameraInfo+0x160>
    c93a:	0000      	lsls	r0, r0, #0
    c93c:	db80      	blt.n	c840 <HAL_getCameraInfo+0xc4>
    c93e:	0000      	lsls	r0, r0, #0
    c940:	dc40      	bgt.n	c9c4 <_ZN7android22QualcommCameraHardware15storeTargetTypeEv+0x5c>
    c942:	0000      	lsls	r0, r0, #0
    c944:	35cc      	adds	r5, #204	; 0xcc
    c946:	0001      	lsls	r1, r0, #0
    c948:	35b6      	adds	r5, #182	; 0xb6
    c94a:	0001      	lsls	r1, r0, #0
    c94c:	35b0      	adds	r5, #176	; 0xb0
    c94e:	0001      	lsls	r1, r0, #0
    c950:	dbea      	blt.n	c928 <HAL_getCameraInfo+0x1ac>
    c952:	0000      	lsls	r0, r0, #0
    c954:	d85e      	bhi.n	ca14 <_ZN7android22QualcommCameraHardware15storeTargetTypeEv+0xac>
    c956:	0000      	lsls	r0, r0, #0
    c958:	db0a      	blt.n	c970 <_ZN7android22QualcommCameraHardware15storeTargetTypeEv+0x8>
    c95a:	0000      	lsls	r0, r0, #0
    c95c:	dbdf      	blt.n	c91e <HAL_getCameraInfo+0x1a2>
    c95e:	0000      	lsls	r0, r0, #0
    c960:	daee      	bge.n	c940 <HAL_getCameraInfo+0x1c4>
    c962:	0000      	lsls	r0, r0, #0
    c964:	dbdc      	blt.n	c920 <HAL_getCameraInfo+0x1a4>
	...

0000c968 <_ZN7android22QualcommCameraHardware15storeTargetTypeEv>:
    c968:	e92d 41f0 	stmdb	sp!, {r4, r5, r6, r7, r8, lr}
    c96c:	4c26      	ldr	r4, [pc, #152]	; (ca08 <_ZN7android22QualcommCameraHardware15storeTargetTypeEv+0xa0>)
    c96e:	4d27      	ldr	r5, [pc, #156]	; (ca0c <_ZN7android22QualcommCameraHardware15storeTargetTypeEv+0xa4>)
    c970:	b098      	sub	sp, #96	; 0x60
    c972:	447c      	add	r4, pc
    c974:	4a26      	ldr	r2, [pc, #152]	; (ca10 <_ZN7android22QualcommCameraHardware15storeTargetTypeEv+0xa8>)
    c976:	4e27      	ldr	r6, [pc, #156]	; (ca14 <_ZN7android22QualcommCameraHardware15storeTargetTypeEv+0xac>)
    c978:	466f      	mov	r7, sp
    c97a:	5961      	ldr	r1, [r4, r5]
    c97c:	447a      	add	r2, pc
    c97e:	2500      	movs	r5, #0
    c980:	447e      	add	r6, pc
    c982:	6808      	ldr	r0, [r1, #0]
    c984:	4669      	mov	r1, sp
    c986:	9017      	str	r0, [sp, #92]	; 0x5c
    c988:	4823      	ldr	r0, [pc, #140]	; (ca18 <_ZN7android22QualcommCameraHardware15storeTargetTypeEv+0xb0>)
    c98a:	4478      	add	r0, pc
    c98c:	f7ff ea04 	blx	bd98 <_ZN7android22QualcommCameraHardware22supportsSceneDetectionEv-0x66c>
    c990:	4b22      	ldr	r3, [pc, #136]	; (ca1c <_ZN7android22QualcommCameraHardware15storeTargetTypeEv+0xb4>)
    c992:	2207      	movs	r2, #7
    c994:	447b      	add	r3, pc
    c996:	601a      	str	r2, [r3, #0]
    c998:	4668      	mov	r0, sp
    c99a:	f856 1035 	ldr.w	r1, [r6, r5, lsl #3]
    c99e:	2207      	movs	r2, #7
    c9a0:	ea4f 08c5 	mov.w	r8, r5, lsl #3
    c9a4:	f7ff e9fe 	blx	bda4 <_ZN7android22QualcommCameraHardware22supportsSceneDetectionEv-0x660>
    c9a8:	b9e8      	cbnz	r0, c9e6 <_ZN7android22QualcommCameraHardware15storeTargetTypeEv+0x7e>
    c9aa:	4446      	add	r6, r8
    c9ac:	4d1c      	ldr	r5, [pc, #112]	; (ca20 <_ZN7android22QualcommCameraHardware15storeTargetTypeEv+0xb8>)
    c9ae:	6872      	ldr	r2, [r6, #4]
    c9b0:	447d      	add	r5, pc
    c9b2:	602a      	str	r2, [r5, #0]
    c9b4:	b942      	cbnz	r2, c9c8 <_ZN7android22QualcommCameraHardware15storeTargetTypeEv+0x60>
    c9b6:	491b      	ldr	r1, [pc, #108]	; (ca24 <_ZN7android22QualcommCameraHardware15storeTargetTypeEv+0xbc>)
    c9b8:	4668      	mov	r0, sp
    c9ba:	2208      	movs	r2, #8
    c9bc:	4479      	add	r1, pc
    c9be:	f7ff e9f2 	blx	bda4 <_ZN7android22QualcommCameraHardware22supportsSceneDetectionEv-0x660>
    c9c2:	b908      	cbnz	r0, c9c8 <_ZN7android22QualcommCameraHardware15storeTargetTypeEv+0x60>
    c9c4:	2301      	movs	r3, #1
    c9c6:	602b      	str	r3, [r5, #0]
    c9c8:	4d17      	ldr	r5, [pc, #92]	; (ca28 <_ZN7android22QualcommCameraHardware15storeTargetTypeEv+0xc0>)
    c9ca:	447d      	add	r5, pc
    c9cc:	6828      	ldr	r0, [r5, #0]
    c9ce:	2802      	cmp	r0, #2
    c9d0:	d10c      	bne.n	c9ec <_ZN7android22QualcommCameraHardware15storeTargetTypeEv+0x84>
    c9d2:	4916      	ldr	r1, [pc, #88]	; (ca2c <_ZN7android22QualcommCameraHardware15storeTargetTypeEv+0xc4>)
    c9d4:	4668      	mov	r0, sp
    c9d6:	2208      	movs	r2, #8
    c9d8:	4479      	add	r1, pc
    c9da:	f7ff e9e4 	blx	bda4 <_ZN7android22QualcommCameraHardware22supportsSceneDetectionEv-0x660>
    c9de:	b928      	cbnz	r0, c9ec <_ZN7android22QualcommCameraHardware15storeTargetTypeEv+0x84>
    c9e0:	2103      	movs	r1, #3
    c9e2:	6029      	str	r1, [r5, #0]
    c9e4:	e002      	b.n	c9ec <_ZN7android22QualcommCameraHardware15storeTargetTypeEv+0x84>
    c9e6:	3501      	adds	r5, #1
    c9e8:	2d07      	cmp	r5, #7
    c9ea:	d1d5      	bne.n	c998 <_ZN7android22QualcommCameraHardware15storeTargetTypeEv+0x30>
    c9ec:	f8df c01c 	ldr.w	ip, [pc, #28]	; ca0c <_ZN7android22QualcommCameraHardware15storeTargetTypeEv+0xa4>
    c9f0:	9a17      	ldr	r2, [sp, #92]	; 0x5c
    c9f2:	f854 000c 	ldr.w	r0, [r4, ip]
    c9f6:	6803      	ldr	r3, [r0, #0]
    c9f8:	429a      	cmp	r2, r3
    c9fa:	d001      	beq.n	ca00 <_ZN7android22QualcommCameraHardware15storeTargetTypeEv+0x98>
    c9fc:	f7ff e9de 	blx	bdbc <_ZN7android22QualcommCameraHardware22supportsSceneDetectionEv-0x648>
    ca00:	b018      	add	sp, #96	; 0x60
    ca02:	e8bd 81f0 	ldmia.w	sp!, {r4, r5, r6, r7, r8, pc}
    ca06:	bf00      	nop
    ca08:	3186      	adds	r1, #134	; 0x86
    ca0a:	0001      	lsls	r1, r0, #0
    ca0c:	fd6c ffff 	stc2l	15, cr15, [ip, #-1020]!	; 0xfffffc04
    ca10:	dac7      	bge.n	c9a2 <_ZN7android22QualcommCameraHardware15storeTargetTypeEv+0x3a>
    ca12:	0000      	lsls	r0, r0, #0
    ca14:	2694      	movs	r6, #148	; 0x94
    ca16:	0001      	lsls	r1, r0, #0
    ca18:	daa8      	bge.n	c96c <_ZN7android22QualcommCameraHardware15storeTargetTypeEv+0x4>
    ca1a:	0000      	lsls	r0, r0, #0
    ca1c:	33a8      	adds	r3, #168	; 0xa8
    ca1e:	0001      	lsls	r1, r0, #0
    ca20:	338c      	adds	r3, #140	; 0x8c
    ca22:	0001      	lsls	r1, r0, #0
    ca24:	dab0      	bge.n	c988 <_ZN7android22QualcommCameraHardware15storeTargetTypeEv+0x20>
    ca26:	0000      	lsls	r0, r0, #0
    ca28:	3372      	adds	r3, #114	; 0x72
    ca2a:	0001      	lsls	r1, r0, #0
    ca2c:	da9d      	bge.n	c96a <_ZN7android22QualcommCameraHardware15storeTargetTypeEv+0x2>
	...

0000ca30 <_ZN7android22QualcommCameraHardware13getCameraInfoEv>:
    ca30:	e92d 4ff8 	stmdb	sp!, {r3, r4, r5, r6, r7, r8, r9, sl, fp, lr}
    ca34:	4c49      	ldr	r4, [pc, #292]	; (cb5c <_ZN7android22QualcommCameraHardware13getCameraInfoEv+0x12c>)
    ca36:	4a4a      	ldr	r2, [pc, #296]	; (cb60 <_ZN7android22QualcommCameraHardware13getCameraInfoEv+0x130>)
    ca38:	2004      	movs	r0, #4
    ca3a:	447c      	add	r4, pc
    ca3c:	4d49      	ldr	r5, [pc, #292]	; (cb64 <_ZN7android22QualcommCameraHardware13getCameraInfoEv+0x134>)
    ca3e:	447a      	add	r2, pc
    ca40:	4621      	mov	r1, r4
    ca42:	f7ff e99e 	blx	bd80 <_ZN7android22QualcommCameraHardware22supportsSceneDetectionEv-0x684>
    ca46:	4848      	ldr	r0, [pc, #288]	; (cb68 <_ZN7android22QualcommCameraHardware13getCameraInfoEv+0x138>)
    ca48:	2100      	movs	r1, #0
    ca4a:	447d      	add	r5, pc
    ca4c:	4478      	add	r0, pc
    ca4e:	f7ff e9bc 	blx	bdc8 <_ZN7android22QualcommCameraHardware22supportsSceneDetectionEv-0x63c>
    ca52:	4a46      	ldr	r2, [pc, #280]	; (cb6c <_ZN7android22QualcommCameraHardware13getCameraInfoEv+0x13c>)
    ca54:	4621      	mov	r1, r4
    ca56:	447a      	add	r2, pc
    ca58:	4606      	mov	r6, r0
    ca5a:	2004      	movs	r0, #4
    ca5c:	4633      	mov	r3, r6
    ca5e:	f7ff e990 	blx	bd80 <_ZN7android22QualcommCameraHardware22supportsSceneDetectionEv-0x684>
    ca62:	b946      	cbnz	r6, ca76 <_ZN7android22QualcommCameraHardware13getCameraInfoEv+0x46>
    ca64:	f7ff e9b6 	blx	bdd4 <_ZN7android22QualcommCameraHardware22supportsSceneDetectionEv-0x630>
    ca68:	4a41      	ldr	r2, [pc, #260]	; (cb70 <_ZN7android22QualcommCameraHardware13getCameraInfoEv+0x140>)
    ca6a:	4621      	mov	r1, r4
    ca6c:	447a      	add	r2, pc
    ca6e:	4603      	mov	r3, r0
    ca70:	2006      	movs	r0, #6
    ca72:	f7ff e986 	blx	bd80 <_ZN7android22QualcommCameraHardware22supportsSceneDetectionEv-0x684>
    ca76:	493f      	ldr	r1, [pc, #252]	; (cb74 <_ZN7android22QualcommCameraHardware13getCameraInfoEv+0x144>)
    ca78:	4630      	mov	r0, r6
    ca7a:	f8df b0fc 	ldr.w	fp, [pc, #252]	; cb78 <_ZN7android22QualcommCameraHardware13getCameraInfoEv+0x148>
    ca7e:	2700      	movs	r7, #0
    ca80:	4479      	add	r1, pc
    ca82:	f8df 80f8 	ldr.w	r8, [pc, #248]	; cb7c <_ZN7android22QualcommCameraHardware13getCameraInfoEv+0x14c>
    ca86:	f7ff e9ac 	blx	bde0 <_ZN7android22QualcommCameraHardware22supportsSceneDetectionEv-0x624>
    ca8a:	493d      	ldr	r1, [pc, #244]	; (cb80 <_ZN7android22QualcommCameraHardware13getCameraInfoEv+0x150>)
    ca8c:	44fb      	add	fp, pc
    ca8e:	f8df 90f4 	ldr.w	r9, [pc, #244]	; cb84 <_ZN7android22QualcommCameraHardware13getCameraInfoEv+0x154>
    ca92:	f8df a0f4 	ldr.w	sl, [pc, #244]	; cb88 <_ZN7android22QualcommCameraHardware13getCameraInfoEv+0x158>
    ca96:	44f8      	add	r8, pc
    ca98:	586c      	ldr	r4, [r5, r1]
    ca9a:	44f9      	add	r9, pc
    ca9c:	4d3b      	ldr	r5, [pc, #236]	; (cb8c <_ZN7android22QualcommCameraHardware13getCameraInfoEv+0x15c>)
    ca9e:	44fa      	add	sl, pc
    caa0:	447d      	add	r5, pc
    caa2:	6020      	str	r0, [r4, #0]
    caa4:	f7ff ff60 	bl	c968 <_ZN7android22QualcommCameraHardware15storeTargetTypeEv>
    caa8:	6823      	ldr	r3, [r4, #0]
    caaa:	f10b 010c 	add.w	r1, fp, #12
    caae:	f10b 0010 	add.w	r0, fp, #16
    cab2:	4798      	blx	r3
    cab4:	4936      	ldr	r1, [pc, #216]	; (cb90 <_ZN7android22QualcommCameraHardware13getCameraInfoEv+0x160>)
    cab6:	4a37      	ldr	r2, [pc, #220]	; (cb94 <_ZN7android22QualcommCameraHardware13getCameraInfoEv+0x164>)
    cab8:	2004      	movs	r0, #4
    caba:	4479      	add	r1, pc
    cabc:	f8db 300c 	ldr.w	r3, [fp, #12]
    cac0:	447a      	add	r2, pc
    cac2:	f10b 0418 	add.w	r4, fp, #24
    cac6:	f7ff e95c 	blx	bd80 <_ZN7android22QualcommCameraHardware22supportsSceneDetectionEv-0x684>
    caca:	e035      	b.n	cb38 <_ZN7android22QualcommCameraHardware13getCameraInfoEv+0x108>
    cacc:	6820      	ldr	r0, [r4, #0]
    cace:	b940      	cbnz	r0, cae2 <_ZN7android22QualcommCameraHardware13getCameraInfoEv+0xb2>
    cad0:	f8d8 3000 	ldr.w	r3, [r8]
    cad4:	2b06      	cmp	r3, #6
    cad6:	bf04      	itt	eq
    cad8:	f854 3c08 	ldreq.w	r3, [r4, #-8]
    cadc:	f043 0308 	orreq.w	r3, r3, #8
    cae0:	d003      	beq.n	caea <_ZN7android22QualcommCameraHardware13getCameraInfoEv+0xba>
    cae2:	f854 2c08 	ldr.w	r2, [r4, #-8]
    cae6:	f042 0304 	orr.w	r3, r2, #4
    caea:	f844 3c08 	str.w	r3, [r4, #-8]
    caee:	4629      	mov	r1, r5
    caf0:	463b      	mov	r3, r7
    caf2:	464a      	mov	r2, r9
    caf4:	2004      	movs	r0, #4
    caf6:	3701      	adds	r7, #1
    caf8:	f7ff e942 	blx	bd80 <_ZN7android22QualcommCameraHardware22supportsSceneDetectionEv-0x684>
    cafc:	f914 3c04 	ldrsb.w	r3, [r4, #-4]
    cb00:	4629      	mov	r1, r5
    cb02:	4652      	mov	r2, sl
    cb04:	2004      	movs	r0, #4
    cb06:	f7ff e93c 	blx	bd80 <_ZN7android22QualcommCameraHardware22supportsSceneDetectionEv-0x684>
    cb0a:	4a23      	ldr	r2, [pc, #140]	; (cb98 <_ZN7android22QualcommCameraHardware13getCameraInfoEv+0x168>)
    cb0c:	f854 3c08 	ldr.w	r3, [r4, #-8]
    cb10:	4629      	mov	r1, r5
    cb12:	447a      	add	r2, pc
    cb14:	2004      	movs	r0, #4
    cb16:	f7ff e934 	blx	bd80 <_ZN7android22QualcommCameraHardware22supportsSceneDetectionEv-0x684>
    cb1a:	4a20      	ldr	r2, [pc, #128]	; (cb9c <_ZN7android22QualcommCameraHardware13getCameraInfoEv+0x16c>)
    cb1c:	6823      	ldr	r3, [r4, #0]
    cb1e:	4629      	mov	r1, r5
    cb20:	447a      	add	r2, pc
    cb22:	2004      	movs	r0, #4
    cb24:	f7ff e92c 	blx	bd80 <_ZN7android22QualcommCameraHardware22supportsSceneDetectionEv-0x684>
    cb28:	4a1d      	ldr	r2, [pc, #116]	; (cba0 <_ZN7android22QualcommCameraHardware13getCameraInfoEv+0x170>)
    cb2a:	6863      	ldr	r3, [r4, #4]
    cb2c:	2004      	movs	r0, #4
    cb2e:	447a      	add	r2, pc
    cb30:	4629      	mov	r1, r5
    cb32:	f7ff e926 	blx	bd80 <_ZN7android22QualcommCameraHardware22supportsSceneDetectionEv-0x684>
    cb36:	3410      	adds	r4, #16
    cb38:	f8db 300c 	ldr.w	r3, [fp, #12]
    cb3c:	429f      	cmp	r7, r3
    cb3e:	dbc5      	blt.n	cacc <_ZN7android22QualcommCameraHardware13getCameraInfoEv+0x9c>
    cb40:	b116      	cbz	r6, cb48 <_ZN7android22QualcommCameraHardware13getCameraInfoEv+0x118>
    cb42:	4630      	mov	r0, r6
    cb44:	f7ff e952 	blx	bdec <_ZN7android22QualcommCameraHardware22supportsSceneDetectionEv-0x618>
    cb48:	4916      	ldr	r1, [pc, #88]	; (cba4 <_ZN7android22QualcommCameraHardware13getCameraInfoEv+0x174>)
    cb4a:	2004      	movs	r0, #4
    cb4c:	4a16      	ldr	r2, [pc, #88]	; (cba8 <_ZN7android22QualcommCameraHardware13getCameraInfoEv+0x178>)
    cb4e:	4479      	add	r1, pc
    cb50:	447a      	add	r2, pc
    cb52:	f7ff e916 	blx	bd80 <_ZN7android22QualcommCameraHardware22supportsSceneDetectionEv-0x684>
    cb56:	e8bd 8ff8 	ldmia.w	sp!, {r3, r4, r5, r6, r7, r8, r9, sl, fp, pc}
    cb5a:	bf00      	nop
    cb5c:	d992      	bls.n	ca84 <_ZN7android22QualcommCameraHardware13getCameraInfoEv+0x54>
    cb5e:	0000      	lsls	r0, r0, #0
    cb60:	daac      	bge.n	cabc <_ZN7android22QualcommCameraHardware13getCameraInfoEv+0x8c>
    cb62:	0000      	lsls	r0, r0, #0
    cb64:	30ae      	adds	r0, #174	; 0xae
    cb66:	0001      	lsls	r1, r0, #0
    cb68:	dab0      	bge.n	cacc <_ZN7android22QualcommCameraHardware13getCameraInfoEv+0x9c>
    cb6a:	0000      	lsls	r0, r0, #0
    cb6c:	dab6      	bge.n	cadc <_ZN7android22QualcommCameraHardware13getCameraInfoEv+0xac>
    cb6e:	0000      	lsls	r0, r0, #0
    cb70:	dac8      	bge.n	cb04 <_ZN7android22QualcommCameraHardware13getCameraInfoEv+0xd4>
    cb72:	0000      	lsls	r0, r0, #0
    cb74:	dae6      	bge.n	cb44 <_ZN7android22QualcommCameraHardware13getCameraInfoEv+0x114>
    cb76:	0000      	lsls	r0, r0, #0
    cb78:	33a0      	adds	r3, #160	; 0xa0
    cb7a:	0001      	lsls	r1, r0, #0
    cb7c:	32a6      	adds	r2, #166	; 0xa6
    cb7e:	0001      	lsls	r1, r0, #0
    cb80:	fd70 ffff 	ldc2l	15, cr15, [r0, #-1020]!	; 0xfffffc04
    cb84:	db07      	blt.n	cb96 <_ZN7android22QualcommCameraHardware13getCameraInfoEv+0x166>
    cb86:	0000      	lsls	r0, r0, #0
    cb88:	db1a      	blt.n	cbc0 <_ZN7android22QualcommCameraHardware10MMCameraDLD1Ev>
    cb8a:	0000      	lsls	r0, r0, #0
    cb8c:	d92c      	bls.n	cbe8 <_ZN7android22QualcommCameraHardware10MMCameraDLD1Ev+0x28>
    cb8e:	0000      	lsls	r0, r0, #0
    cb90:	d912      	bls.n	cbb8 <HAL_getNumberOfCameras+0xc>
    cb92:	0000      	lsls	r0, r0, #0
    cb94:	dac0      	bge.n	cb18 <_ZN7android22QualcommCameraHardware13getCameraInfoEv+0xe8>
    cb96:	0000      	lsls	r0, r0, #0
    cb98:	dab4      	bge.n	cb04 <_ZN7android22QualcommCameraHardware13getCameraInfoEv+0xd4>
    cb9a:	0000      	lsls	r0, r0, #0
    cb9c:	daba      	bge.n	cb14 <_ZN7android22QualcommCameraHardware13getCameraInfoEv+0xe4>
    cb9e:	0000      	lsls	r0, r0, #0
    cba0:	dab9      	bge.n	cb16 <_ZN7android22QualcommCameraHardware13getCameraInfoEv+0xe6>
    cba2:	0000      	lsls	r0, r0, #0
    cba4:	d87e      	bhi.n	cca4 <_ZN7android22QualcommCameraHardware30receive_camframe_error_timeoutEv+0x38>
    cba6:	0000      	lsls	r0, r0, #0
    cba8:	daae      	bge.n	cb08 <_ZN7android22QualcommCameraHardware13getCameraInfoEv+0xd8>
	...

0000cbac <HAL_getNumberOfCameras>:
    cbac:	b510      	push	{r4, lr}
    cbae:	f7ff ff3f 	bl	ca30 <_ZN7android22QualcommCameraHardware13getCameraInfoEv>
    cbb2:	4b02      	ldr	r3, [pc, #8]	; (cbbc <HAL_getNumberOfCameras+0x10>)
    cbb4:	447b      	add	r3, pc
    cbb6:	68d8      	ldr	r0, [r3, #12]
    cbb8:	bd10      	pop	{r4, pc}
    cbba:	bf00      	nop
    cbbc:	3278      	adds	r2, #120	; 0x78
    cbbe:	0001      	lsls	r1, r0, #0

0000cbc0 <_ZN7android22QualcommCameraHardware10MMCameraDLD1Ev>:
    cbc0:	4b0c      	ldr	r3, [pc, #48]	; (cbf4 <_ZN7android22QualcommCameraHardware10MMCameraDLD1Ev+0x34>)
    cbc2:	f8df c034 	ldr.w	ip, [pc, #52]	; cbf8 <_ZN7android22QualcommCameraHardware10MMCameraDLD1Ev+0x38>
    cbc6:	447b      	add	r3, pc
    cbc8:	4a0c      	ldr	r2, [pc, #48]	; (cbfc <_ZN7android22QualcommCameraHardware10MMCameraDLD1Ev+0x3c>)
    cbca:	b510      	push	{r4, lr}
    cbcc:	4604      	mov	r4, r0
    cbce:	f853 000c 	ldr.w	r0, [r3, ip]
    cbd2:	f110 0108 	adds.w	r1, r0, #8
    cbd6:	5898      	ldr	r0, [r3, r2]
    cbd8:	6021      	str	r1, [r4, #0]
    cbda:	6803      	ldr	r3, [r0, #0]
    cbdc:	4798      	blx	r3
    cbde:	68a0      	ldr	r0, [r4, #8]
    cbe0:	b108      	cbz	r0, cbe6 <_ZN7android22QualcommCameraHardware10MMCameraDLD1Ev+0x26>
    cbe2:	f7ff e904 	blx	bdec <_ZN7android22QualcommCameraHardware22supportsSceneDetectionEv-0x618>
    cbe6:	2300      	movs	r3, #0
    cbe8:	4620      	mov	r0, r4
    cbea:	60a3      	str	r3, [r4, #8]
    cbec:	f7ff e892 	blx	bd14 <_ZN7android22QualcommCameraHardware22supportsSceneDetectionEv-0x6f0>
    cbf0:	4620      	mov	r0, r4
    cbf2:	bd10      	pop	{r4, pc}
    cbf4:	2f32      	cmp	r7, #50	; 0x32
    cbf6:	0001      	lsls	r1, r0, #0
    cbf8:	fd74 ffff 	ldc2l	15, cr15, [r4, #-1020]!	; 0xfffffc04
    cbfc:	fd78 ffff 	ldc2l	15, cr15, [r8, #-1020]!	; 0xfffffc04

0000cc00 <_ZN7android22QualcommCameraHardware10MMCameraDLD0Ev>:
    cc00:	b510      	push	{r4, lr}
    cc02:	4604      	mov	r4, r0
    cc04:	f7ff ffdc 	bl	cbc0 <_ZN7android22QualcommCameraHardware10MMCameraDLD1Ev>
    cc08:	4620      	mov	r0, r4
    cc0a:	f7ff e88a 	blx	bd20 <_ZN7android22QualcommCameraHardware22supportsSceneDetectionEv-0x6e4>
    cc0e:	4620      	mov	r0, r4
    cc10:	bd10      	pop	{r4, pc}
    cc12:	bf00      	nop

0000cc14 <_ZN7android22QualcommCameraHardware10MMCameraDLD2Ev>:
    cc14:	4b0c      	ldr	r3, [pc, #48]	; (cc48 <_ZN7android22QualcommCameraHardware10MMCameraDLD2Ev+0x34>)
    cc16:	f8df c034 	ldr.w	ip, [pc, #52]	; cc4c <_ZN7android22QualcommCameraHardware10MMCameraDLD2Ev+0x38>
    cc1a:	447b      	add	r3, pc
    cc1c:	4a0c      	ldr	r2, [pc, #48]	; (cc50 <_ZN7android22QualcommCameraHardware10MMCameraDLD2Ev+0x3c>)
    cc1e:	b510      	push	{r4, lr}
    cc20:	4604      	mov	r4, r0
    cc22:	f853 000c 	ldr.w	r0, [r3, ip]
    cc26:	f110 0108 	adds.w	r1, r0, #8
    cc2a:	5898      	ldr	r0, [r3, r2]
    cc2c:	6021      	str	r1, [r4, #0]
    cc2e:	6803      	ldr	r3, [r0, #0]
    cc30:	4798      	blx	r3
    cc32:	68a0      	ldr	r0, [r4, #8]
    cc34:	b108      	cbz	r0, cc3a <_ZN7android22QualcommCameraHardware10MMCameraDLD2Ev+0x26>
    cc36:	f7ff e8da 	blx	bdec <_ZN7android22QualcommCameraHardware22supportsSceneDetectionEv-0x618>
    cc3a:	2300      	movs	r3, #0
    cc3c:	4620      	mov	r0, r4
    cc3e:	60a3      	str	r3, [r4, #8]
    cc40:	f7ff e868 	blx	bd14 <_ZN7android22QualcommCameraHardware22supportsSceneDetectionEv-0x6f0>
    cc44:	4620      	mov	r0, r4
    cc46:	bd10      	pop	{r4, pc}
    cc48:	2ede      	cmp	r6, #222	; 0xde
    cc4a:	0001      	lsls	r1, r0, #0
    cc4c:	fd74 ffff 	ldc2l	15, cr15, [r4, #-1020]!	; 0xfffffc04
    cc50:	fd78 ffff 	ldc2l	15, cr15, [r8, #-1020]!	; 0xfffffc04
    cc54:	b510      	push	{r4, lr}
    cc56:	f7ff e8d0 	blx	bdf8 <_ZN7android22QualcommCameraHardware22supportsSceneDetectionEv-0x60c>
    cc5a:	4240      	negs	r0, r0
    cc5c:	bd10      	pop	{r4, pc}
    cc5e:	bf00      	nop
    cc60:	b510      	push	{r4, lr}
    cc62:	f7ff e8d0 	blx	be04 <_ZN7android22QualcommCameraHardware22supportsSceneDetectionEv-0x600>
    cc66:	4240      	negs	r0, r0
    cc68:	bd10      	pop	{r4, pc}
    cc6a:	bf00      	nop

0000cc6c <_ZN7android22QualcommCameraHardware30receive_camframe_error_timeoutEv>:
    cc6c:	e92d 41f0 	stmdb	sp!, {r4, r5, r6, r7, r8, lr}
    cc70:	4c14      	ldr	r4, [pc, #80]	; (ccc4 <_ZN7android22QualcommCameraHardware30receive_camframe_error_timeoutEv+0x58>)
    cc72:	4a15      	ldr	r2, [pc, #84]	; (ccc8 <_ZN7android22QualcommCameraHardware30receive_camframe_error_timeoutEv+0x5c>)
    cc74:	4607      	mov	r7, r0
    cc76:	447c      	add	r4, pc
    cc78:	f507 75a0 	add.w	r5, r7, #320	; 0x140
    cc7c:	4621      	mov	r1, r4
    cc7e:	447a      	add	r2, pc
    cc80:	2004      	movs	r0, #4
    cc82:	f7ff e87e 	blx	bd80 <_ZN7android22QualcommCameraHardware22supportsSceneDetectionEv-0x684>
    cc86:	4628      	mov	r0, r5
    cc88:	f7ff ffea 	bl	cc60 <_ZN7android22QualcommCameraHardware10MMCameraDLD2Ev+0x4c>
    cc8c:	4a0f      	ldr	r2, [pc, #60]	; (cccc <_ZN7android22QualcommCameraHardware30receive_camframe_error_timeoutEv+0x60>)
    cc8e:	4621      	mov	r1, r4
    cc90:	2006      	movs	r0, #6
    cc92:	447a      	add	r2, pc
    cc94:	f7ff e874 	blx	bd80 <_ZN7android22QualcommCameraHardware22supportsSceneDetectionEv-0x684>
    cc98:	2001      	movs	r0, #1
    cc9a:	4601      	mov	r1, r0
    cc9c:	f887 0144 	strb.w	r0, [r7, #324]	; 0x144
    cca0:	2200      	movs	r2, #0
    cca2:	f8d7 33f8 	ldr.w	r3, [r7, #1016]	; 0x3f8
    cca6:	f8d7 63ec 	ldr.w	r6, [r7, #1004]	; 0x3ec
    ccaa:	47b0      	blx	r6
    ccac:	4a08      	ldr	r2, [pc, #32]	; (ccd0 <_ZN7android22QualcommCameraHardware30receive_camframe_error_timeoutEv+0x64>)
    ccae:	2004      	movs	r0, #4
    ccb0:	4621      	mov	r1, r4
    ccb2:	447a      	add	r2, pc
    ccb4:	f7ff e864 	blx	bd80 <_ZN7android22QualcommCameraHardware22supportsSceneDetectionEv-0x684>
    ccb8:	4628      	mov	r0, r5
    ccba:	f7ff e8aa 	blx	be10 <_ZN7android22QualcommCameraHardware22supportsSceneDetectionEv-0x5f4>
    ccbe:	e8bd 81f0 	ldmia.w	sp!, {r4, r5, r6, r7, r8, pc}
    ccc2:	bf00      	nop
    ccc4:	d756      	bvc.n	cd74 <_ZN7android22QualcommCameraHardware10FrameQueue6deinitEv+0x8>
    ccc6:	0000      	lsls	r0, r0, #0
    ccc8:	d993      	bls.n	cbf2 <_ZN7android22QualcommCameraHardware10MMCameraDLD1Ev+0x32>
    ccca:	0000      	lsls	r0, r0, #0
    cccc:	d9a1      	bls.n	cc12 <_ZN7android22QualcommCameraHardware10MMCameraDLD0Ev+0x12>
    ccce:	0000      	lsls	r0, r0, #0
    ccd0:	d9c3      	bls.n	cc5a <_ZN7android22QualcommCameraHardware10MMCameraDLD2Ev+0x46>
	...

0000ccd4 <_ZN7android22QualcommCameraHardware14disableMsgTypeEi>:
    ccd4:	b570      	push	{r4, r5, r6, lr}
    ccd6:	4604      	mov	r4, r0
    ccd8:	f500 759e 	add.w	r5, r0, #316	; 0x13c
    ccdc:	460e      	mov	r6, r1
    ccde:	4628      	mov	r0, r5
    cce0:	f7ff ffbe 	bl	cc60 <_ZN7android22QualcommCameraHardware10MMCameraDLD2Ev+0x4c>
    cce4:	f8d4 33e8 	ldr.w	r3, [r4, #1000]	; 0x3e8
    cce8:	4628      	mov	r0, r5
    ccea:	ea23 0606 	bic.w	r6, r3, r6
    ccee:	f8c4 63e8 	str.w	r6, [r4, #1000]	; 0x3e8
    ccf2:	f7ff e88e 	blx	be10 <_ZN7android22QualcommCameraHardware22supportsSceneDetectionEv-0x5f4>
    ccf6:	bd70      	pop	{r4, r5, r6, pc}

0000ccf8 <_ZN7android22QualcommCameraHardware13enableMsgTypeEi>:
    ccf8:	b570      	push	{r4, r5, r6, lr}
    ccfa:	4604      	mov	r4, r0
    ccfc:	f500 759e 	add.w	r5, r0, #316	; 0x13c
    cd00:	460e      	mov	r6, r1
    cd02:	4628      	mov	r0, r5
    cd04:	f7ff ffac 	bl	cc60 <_ZN7android22QualcommCameraHardware10MMCameraDLD2Ev+0x4c>
    cd08:	f8d4 33e8 	ldr.w	r3, [r4, #1000]	; 0x3e8
    cd0c:	4628      	mov	r0, r5
    cd0e:	ea43 0606 	orr.w	r6, r3, r6
    cd12:	f8c4 63e8 	str.w	r6, [r4, #1000]	; 0x3e8
    cd16:	f7ff e87c 	blx	be10 <_ZN7android22QualcommCameraHardware22supportsSceneDetectionEv-0x5f4>
    cd1a:	bd70      	pop	{r4, r5, r6, pc}

0000cd1c <_ZN7android22QualcommCameraHardware12setCallbacksEPFviiiPvEPFviRKNS_2spINS_7IMemoryEEES1_EPFvxiS8_S1_ES1_>:
    cd1c:	e92d 41f0 	stmdb	sp!, {r4, r5, r6, r7, r8, lr}
    cd20:	f500 779e 	add.w	r7, r0, #316	; 0x13c
    cd24:	4604      	mov	r4, r0
    cd26:	4638      	mov	r0, r7
    cd28:	4698      	mov	r8, r3
    cd2a:	460d      	mov	r5, r1
    cd2c:	4616      	mov	r6, r2
    cd2e:	f7ff ff97 	bl	cc60 <_ZN7android22QualcommCameraHardware10MMCameraDLD2Ev+0x4c>
    cd32:	9b06      	ldr	r3, [sp, #24]
    cd34:	4638      	mov	r0, r7
    cd36:	f8c4 53ec 	str.w	r5, [r4, #1004]	; 0x3ec
    cd3a:	f8c4 63f0 	str.w	r6, [r4, #1008]	; 0x3f0
    cd3e:	f8c4 83f4 	str.w	r8, [r4, #1012]	; 0x3f4
    cd42:	f8c4 33f8 	str.w	r3, [r4, #1016]	; 0x3f8
    cd46:	f7ff e864 	blx	be10 <_ZN7android22QualcommCameraHardware22supportsSceneDetectionEv-0x5f4>
    cd4a:	e8bd 81f0 	ldmia.w	sp!, {r4, r5, r6, r7, r8, pc}
    cd4e:	bf00      	nop

0000cd50 <_ZN7android22QualcommCameraHardware10FrameQueue13isInitializedEv>:
    cd50:	b570      	push	{r4, r5, r6, lr}
    cd52:	f100 0408 	add.w	r4, r0, #8
    cd56:	4605      	mov	r5, r0
    cd58:	4620      	mov	r0, r4
    cd5a:	f7ff ff81 	bl	cc60 <_ZN7android22QualcommCameraHardware10MMCameraDLD2Ev+0x4c>
    cd5e:	4620      	mov	r0, r4
    cd60:	7c2d      	ldrb	r5, [r5, #16]
    cd62:	f7ff e856 	blx	be10 <_ZN7android22QualcommCameraHardware22supportsSceneDetectionEv-0x5f4>
    cd66:	4628      	mov	r0, r5
    cd68:	bd70      	pop	{r4, r5, r6, pc}
    cd6a:	bf00      	nop

0000cd6c <_ZN7android22QualcommCameraHardware10FrameQueue6deinitEv>:
    cd6c:	b570      	push	{r4, r5, r6, lr}
    cd6e:	4604      	mov	r4, r0
    cd70:	f100 0508 	add.w	r5, r0, #8
    cd74:	4628      	mov	r0, r5
    cd76:	f7ff ff73 	bl	cc60 <_ZN7android22QualcommCameraHardware10MMCameraDLD2Ev+0x4c>
    cd7a:	2300      	movs	r3, #0
    cd7c:	f104 000c 	add.w	r0, r4, #12
    cd80:	7423      	strb	r3, [r4, #16]
    cd82:	f7ff e84c 	blx	be1c <_ZN7android22QualcommCameraHardware22supportsSceneDetectionEv-0x5e8>
    cd86:	4628      	mov	r0, r5
    cd88:	f7ff e842 	blx	be10 <_ZN7android22QualcommCameraHardware22supportsSceneDetectionEv-0x5f4>
    cd8c:	bd70      	pop	{r4, r5, r6, pc}
    cd8e:	bf00      	nop

0000cd90 <_ZN7android22QualcommCameraHardware13deinitPreviewEv>:
    cd90:	b570      	push	{r4, r5, r6, lr}
    cd92:	4c0d      	ldr	r4, [pc, #52]	; (cdc8 <_ZN7android22QualcommCameraHardware13deinitPreviewEv+0x38>)
    cd94:	4a0d      	ldr	r2, [pc, #52]	; (cdcc <_ZN7android22QualcommCameraHardware13deinitPreviewEv+0x3c>)
    cd96:	4606      	mov	r6, r0
    cd98:	447c      	add	r4, pc
    cd9a:	2004      	movs	r0, #4
    cd9c:	447a      	add	r2, pc
    cd9e:	4621      	mov	r1, r4
    cda0:	f7fe efee 	blx	bd80 <_ZN7android22QualcommCameraHardware22supportsSceneDetectionEv-0x684>
    cda4:	4d0a      	ldr	r5, [pc, #40]	; (cdd0 <_ZN7android22QualcommCameraHardware13deinitPreviewEv+0x40>)
    cda6:	f106 0084 	add.w	r0, r6, #132	; 0x84
    cdaa:	f7ff ffdf 	bl	cd6c <_ZN7android22QualcommCameraHardware10FrameQueue6deinitEv>
    cdae:	4909      	ldr	r1, [pc, #36]	; (cdd4 <_ZN7android22QualcommCameraHardware13deinitPreviewEv+0x44>)
    cdb0:	447d      	add	r5, pc
    cdb2:	5868      	ldr	r0, [r5, r1]
    cdb4:	6803      	ldr	r3, [r0, #0]
    cdb6:	4798      	blx	r3
    cdb8:	4a07      	ldr	r2, [pc, #28]	; (cdd8 <_ZN7android22QualcommCameraHardware13deinitPreviewEv+0x48>)
    cdba:	2004      	movs	r0, #4
    cdbc:	4621      	mov	r1, r4
    cdbe:	447a      	add	r2, pc
    cdc0:	f7fe efde 	blx	bd80 <_ZN7android22QualcommCameraHardware22supportsSceneDetectionEv-0x684>
    cdc4:	bd70      	pop	{r4, r5, r6, pc}
    cdc6:	bf00      	nop
    cdc8:	d634      	bvs.n	ce34 <_ZN7android2spINS_11IMemoryHeapEEC1INS_14MemoryHeapBaseEEERKNS0_IT_EE+0x18>
    cdca:	0000      	lsls	r0, r0, #0
    cdcc:	d8fb      	bhi.n	cdc6 <_ZN7android22QualcommCameraHardware13deinitPreviewEv+0x36>
    cdce:	0000      	lsls	r0, r0, #0
    cdd0:	2d48      	cmp	r5, #72	; 0x48
    cdd2:	0001      	lsls	r1, r0, #0
    cdd4:	fd7c ffff 	ldc2l	15, cr15, [ip, #-1020]!	; 0xfffffc04
    cdd8:	d8e9      	bhi.n	cdae <_ZN7android22QualcommCameraHardware13deinitPreviewEv+0x1e>
	...

0000cddc <_ZN7android22QualcommCameraHardware10FrameQueue4initEv>:
    cddc:	b570      	push	{r4, r5, r6, lr}
    cdde:	4604      	mov	r4, r0
    cde0:	f100 0508 	add.w	r5, r0, #8
    cde4:	4628      	mov	r0, r5
    cde6:	f7ff ff3b 	bl	cc60 <_ZN7android22QualcommCameraHardware10MMCameraDLD2Ev+0x4c>
    cdea:	2301      	movs	r3, #1
    cdec:	f104 000c 	add.w	r0, r4, #12
    cdf0:	7423      	strb	r3, [r4, #16]
    cdf2:	f7ff e814 	blx	be1c <_ZN7android22QualcommCameraHardware22supportsSceneDetectionEv-0x5e8>
    cdf6:	4628      	mov	r0, r5
    cdf8:	f7ff e80a 	blx	be10 <_ZN7android22QualcommCameraHardware22supportsSceneDetectionEv-0x5f4>
    cdfc:	bd70      	pop	{r4, r5, r6, pc}
    cdfe:	bf00      	nop

0000ce00 <_ZN7android2spINS_14MemoryHeapBaseEEC1EPS1_>:
    ce00:	b510      	push	{r4, lr}
    ce02:	4604      	mov	r4, r0
    ce04:	6001      	str	r1, [r0, #0]
    ce06:	b131      	cbz	r1, ce16 <_ZN7android2spINS_14MemoryHeapBaseEEC1EPS1_+0x16>
    ce08:	680b      	ldr	r3, [r1, #0]
    ce0a:	f853 0c10 	ldr.w	r0, [r3, #-16]
    ce0e:	1808      	adds	r0, r1, r0
    ce10:	4621      	mov	r1, r4
    ce12:	f7ff e80a 	blx	be28 <_ZN7android22QualcommCameraHardware22supportsSceneDetectionEv-0x5dc>
    ce16:	4620      	mov	r0, r4
    ce18:	bd10      	pop	{r4, pc}
    ce1a:	bf00      	nop

0000ce1c <_ZN7android2spINS_11IMemoryHeapEEC1INS_14MemoryHeapBaseEEERKNS0_IT_EE>:
    ce1c:	b510      	push	{r4, lr}
    ce1e:	680b      	ldr	r3, [r1, #0]
    ce20:	4604      	mov	r4, r0
    ce22:	b11b      	cbz	r3, ce2c <_ZN7android2spINS_11IMemoryHeapEEC1INS_14MemoryHeapBaseEEERKNS0_IT_EE+0x10>
    ce24:	6818      	ldr	r0, [r3, #0]
    ce26:	f850 2c0c 	ldr.w	r2, [r0, #-12]
    ce2a:	189b      	adds	r3, r3, r2
    ce2c:	6023      	str	r3, [r4, #0]
    ce2e:	b133      	cbz	r3, ce3e <_ZN7android2spINS_11IMemoryHeapEEC1INS_14MemoryHeapBaseEEERKNS0_IT_EE+0x22>
    ce30:	681a      	ldr	r2, [r3, #0]
    ce32:	f852 1c0c 	ldr.w	r1, [r2, #-12]
    ce36:	1858      	adds	r0, r3, r1
    ce38:	4621      	mov	r1, r4
    ce3a:	f7fe eff6 	blx	be28 <_ZN7android22QualcommCameraHardware22supportsSceneDetectionEv-0x5dc>
    ce3e:	4620      	mov	r0, r4
    ce40:	bd10      	pop	{r4, pc}
    ce42:	bf00      	nop

0000ce44 <_ZN7android2spINS_7IMemoryEEC1INS_10MemoryBaseEEERKNS0_IT_EE>:
    ce44:	b510      	push	{r4, lr}
    ce46:	680b      	ldr	r3, [r1, #0]
    ce48:	4604      	mov	r4, r0
    ce4a:	6003      	str	r3, [r0, #0]
    ce4c:	b133      	cbz	r3, ce5c <_ZN7android2spINS_7IMemoryEEC1INS_10MemoryBaseEEERKNS0_IT_EE+0x18>
    ce4e:	681a      	ldr	r2, [r3, #0]
    ce50:	4621      	mov	r1, r4
    ce52:	f852 0c0c 	ldr.w	r0, [r2, #-12]
    ce56:	1818      	adds	r0, r3, r0
    ce58:	f7fe efe6 	blx	be28 <_ZN7android22QualcommCameraHardware22supportsSceneDetectionEv-0x5dc>
    ce5c:	4620      	mov	r0, r4
    ce5e:	bd10      	pop	{r4, pc}

0000ce60 <_ZN7android2spINS_7IMemoryEEaSINS_10MemoryBaseEEERS2_RKNS0_IT_EE>:
    ce60:	b570      	push	{r4, r5, r6, lr}
    ce62:	680d      	ldr	r5, [r1, #0]
    ce64:	4604      	mov	r4, r0
    ce66:	b135      	cbz	r5, ce76 <_ZN7android2spINS_7IMemoryEEaSINS_10MemoryBaseEEERS2_RKNS0_IT_EE+0x16>
    ce68:	682b      	ldr	r3, [r5, #0]
    ce6a:	4621      	mov	r1, r4
    ce6c:	f853 0c0c 	ldr.w	r0, [r3, #-12]
    ce70:	1828      	adds	r0, r5, r0
    ce72:	f7fe efda 	blx	be28 <_ZN7android22QualcommCameraHardware22supportsSceneDetectionEv-0x5dc>
    ce76:	6823      	ldr	r3, [r4, #0]
    ce78:	b133      	cbz	r3, ce88 <_ZN7android2spINS_7IMemoryEEaSINS_10MemoryBaseEEERS2_RKNS0_IT_EE+0x28>
    ce7a:	681a      	ldr	r2, [r3, #0]
    ce7c:	f852 1c0c 	ldr.w	r1, [r2, #-12]
    ce80:	1858      	adds	r0, r3, r1
    ce82:	4621      	mov	r1, r4
    ce84:	f7fe efd6 	blx	be34 <_ZN7android22QualcommCameraHardware22supportsSceneDetectionEv-0x5d0>
    ce88:	6025      	str	r5, [r4, #0]
    ce8a:	4620      	mov	r0, r4
    ce8c:	bd70      	pop	{r4, r5, r6, pc}
    ce8e:	bf00      	nop

0000ce90 <_ZN7android2spINS_22QualcommCameraHardware8PmemPoolEEaSEPS2_>:
    ce90:	b570      	push	{r4, r5, r6, lr}
    ce92:	4604      	mov	r4, r0
    ce94:	460d      	mov	r5, r1
    ce96:	b119      	cbz	r1, cea0 <_ZN7android2spINS_22QualcommCameraHardware8PmemPoolEEaSEPS2_+0x10>
    ce98:	4608      	mov	r0, r1
    ce9a:	4621      	mov	r1, r4
    ce9c:	f7fe efc4 	blx	be28 <_ZN7android22QualcommCameraHardware22supportsSceneDetectionEv-0x5dc>
    cea0:	6820      	ldr	r0, [r4, #0]
    cea2:	b110      	cbz	r0, ceaa <_ZN7android2spINS_22QualcommCameraHardware8PmemPoolEEaSEPS2_+0x1a>
    cea4:	4621      	mov	r1, r4
    cea6:	f7fe efc6 	blx	be34 <_ZN7android22QualcommCameraHardware22supportsSceneDetectionEv-0x5d0>
    ceaa:	6025      	str	r5, [r4, #0]
    ceac:	4620      	mov	r0, r4
    ceae:	bd70      	pop	{r4, r5, r6, pc}

0000ceb0 <_ZN7android2spINS_22QualcommCameraHardware8PmemPoolEE5clearEv>:
    ceb0:	b510      	push	{r4, lr}
    ceb2:	4604      	mov	r4, r0
    ceb4:	6800      	ldr	r0, [r0, #0]
    ceb6:	b120      	cbz	r0, cec2 <_ZN7android2spINS_22QualcommCameraHardware8PmemPoolEE5clearEv+0x12>
    ceb8:	4621      	mov	r1, r4
    ceba:	f7fe efbc 	blx	be34 <_ZN7android22QualcommCameraHardware22supportsSceneDetectionEv-0x5d0>
    cebe:	2300      	movs	r3, #0
    cec0:	6023      	str	r3, [r4, #0]
    cec2:	bd10      	pop	{r4, pc}

0000cec4 <_ZN7android22QualcommCameraHardware17deinitRawSnapshotEv>:
    cec4:	b510      	push	{r4, lr}
    cec6:	3060      	adds	r0, #96	; 0x60
    cec8:	f7ff fff2 	bl	ceb0 <_ZN7android2spINS_22QualcommCameraHardware8PmemPoolEE5clearEv>
    cecc:	bd10      	pop	{r4, pc}
    cece:	bf00      	nop

0000ced0 <_ZN7android2spINS_7OverlayEEaSERKS2_>:
    ced0:	b570      	push	{r4, r5, r6, lr}
    ced2:	680d      	ldr	r5, [r1, #0]
    ced4:	4604      	mov	r4, r0
    ced6:	b135      	cbz	r5, cee6 <_ZN7android2spINS_7OverlayEEaSERKS2_+0x16>
    ced8:	682b      	ldr	r3, [r5, #0]
    ceda:	4621      	mov	r1, r4
    cedc:	f853 0c0c 	ldr.w	r0, [r3, #-12]
    cee0:	1828      	adds	r0, r5, r0
    cee2:	f7fe efa2 	blx	be28 <_ZN7android22QualcommCameraHardware22supportsSceneDetectionEv-0x5dc>
    cee6:	6823      	ldr	r3, [r4, #0]
    cee8:	b133      	cbz	r3, cef8 <_ZN7android2spINS_7OverlayEEaSERKS2_+0x28>
    ceea:	681a      	ldr	r2, [r3, #0]
    ceec:	f852 1c0c 	ldr.w	r1, [r2, #-12]
    cef0:	1858      	adds	r0, r3, r1
    cef2:	4621      	mov	r1, r4
    cef4:	f7fe ef9e 	blx	be34 <_ZN7android22QualcommCameraHardware22supportsSceneDetectionEv-0x5d0>
    cef8:	6025      	str	r5, [r4, #0]
    cefa:	4620      	mov	r0, r4
    cefc:	bd70      	pop	{r4, r5, r6, pc}
    cefe:	bf00      	nop

0000cf00 <_ZN7android2spINS_10MemoryBaseEED1Ev>:
    cf00:	b510      	push	{r4, lr}
    cf02:	6803      	ldr	r3, [r0, #0]
    cf04:	4604      	mov	r4, r0
    cf06:	b133      	cbz	r3, cf16 <_ZN7android2spINS_10MemoryBaseEED1Ev+0x16>
    cf08:	681a      	ldr	r2, [r3, #0]
    cf0a:	4621      	mov	r1, r4
    cf0c:	f852 0c0c 	ldr.w	r0, [r2, #-12]
    cf10:	1818      	adds	r0, r3, r0
    cf12:	f7fe ef90 	blx	be34 <_ZN7android22QualcommCameraHardware22supportsSceneDetectionEv-0x5d0>
    cf16:	4620      	mov	r0, r4
    cf18:	bd10      	pop	{r4, pc}
    cf1a:	bf00      	nop

0000cf1c <_ZN7android2spINS_14MemoryHeapBaseEE5clearEv>:
    cf1c:	b510      	push	{r4, lr}
    cf1e:	6803      	ldr	r3, [r0, #0]
    cf20:	4604      	mov	r4, r0
    cf22:	b143      	cbz	r3, cf36 <_ZN7android2spINS_14MemoryHeapBaseEE5clearEv+0x1a>
    cf24:	681a      	ldr	r2, [r3, #0]
    cf26:	4621      	mov	r1, r4
    cf28:	f852 0c10 	ldr.w	r0, [r2, #-16]
    cf2c:	1818      	adds	r0, r3, r0
    cf2e:	f7fe ef82 	blx	be34 <_ZN7android22QualcommCameraHardware22supportsSceneDetectionEv-0x5d0>
    cf32:	2300      	movs	r3, #0
    cf34:	6023      	str	r3, [r4, #0]
    cf36:	bd10      	pop	{r4, pc}

0000cf38 <_ZN7android2spINS_14MemoryHeapBaseEED1Ev>:
    cf38:	b510      	push	{r4, lr}
    cf3a:	6803      	ldr	r3, [r0, #0]
    cf3c:	4604      	mov	r4, r0
    cf3e:	b133      	cbz	r3, cf4e <_ZN7android2spINS_14MemoryHeapBaseEED1Ev+0x16>
    cf40:	681a      	ldr	r2, [r3, #0]
    cf42:	4621      	mov	r1, r4
    cf44:	f852 0c10 	ldr.w	r0, [r2, #-16]
    cf48:	1818      	adds	r0, r3, r0
    cf4a:	f7fe ef74 	blx	be34 <_ZN7android22QualcommCameraHardware22supportsSceneDetectionEv-0x5d0>
    cf4e:	4620      	mov	r0, r4
    cf50:	bd10      	pop	{r4, pc}
    cf52:	bf00      	nop

0000cf54 <_ZNK7android22QualcommCameraHardware14getPreviewHeapEv>:
    cf54:	b537      	push	{r0, r1, r2, r4, r5, lr}
    cf56:	f891 33e2 	ldrb.w	r3, [r1, #994]	; 0x3e2
    cf5a:	4604      	mov	r4, r0
    cf5c:	2b00      	cmp	r3, #0
    cf5e:	d12a      	bne.n	cfb6 <_ZNK7android22QualcommCameraHardware14getPreviewHeapEv+0x62>
    cf60:	4a22      	ldr	r2, [pc, #136]	; (cfec <_ZNK7android22QualcommCameraHardware14getPreviewHeapEv+0x98>)
    cf62:	447a      	add	r2, pc
    cf64:	6e10      	ldr	r0, [r2, #96]	; 0x60
    cf66:	2804      	cmp	r0, #4
    cf68:	d10e      	bne.n	cf88 <_ZNK7android22QualcommCameraHardware14getPreviewHeapEv+0x34>
    cf6a:	4b21      	ldr	r3, [pc, #132]	; (cff0 <_ZNK7android22QualcommCameraHardware14getPreviewHeapEv+0x9c>)
    cf6c:	447b      	add	r3, pc
    cf6e:	681b      	ldr	r3, [r3, #0]
    cf70:	2b03      	cmp	r3, #3
    cf72:	d109      	bne.n	cf88 <_ZNK7android22QualcommCameraHardware14getPreviewHeapEv+0x34>
    cf74:	f8d1 2404 	ldr.w	r2, [r1, #1028]	; 0x404
    cf78:	06d0      	lsls	r0, r2, #27
    cf7a:	d005      	beq.n	cf88 <_ZNK7android22QualcommCameraHardware14getPreviewHeapEv+0x34>
    cf7c:	6c09      	ldr	r1, [r1, #64]	; 0x40
    cf7e:	4620      	mov	r0, r4
    cf80:	3118      	adds	r1, #24
    cf82:	f7ff ff4b 	bl	ce1c <_ZN7android2spINS_11IMemoryHeapEEC1INS_14MemoryHeapBaseEEERKNS0_IT_EE>
    cf86:	e02e      	b.n	cfe6 <_ZNK7android22QualcommCameraHardware14getPreviewHeapEv+0x92>
    cf88:	6bc9      	ldr	r1, [r1, #60]	; 0x3c
    cf8a:	b151      	cbz	r1, cfa2 <_ZNK7android22QualcommCameraHardware14getPreviewHeapEv+0x4e>
    cf8c:	698b      	ldr	r3, [r1, #24]
    cf8e:	9301      	str	r3, [sp, #4]
    cf90:	b153      	cbz	r3, cfa8 <_ZNK7android22QualcommCameraHardware14getPreviewHeapEv+0x54>
    cf92:	6818      	ldr	r0, [r3, #0]
    cf94:	a901      	add	r1, sp, #4
    cf96:	f850 5c10 	ldr.w	r5, [r0, #-16]
    cf9a:	1958      	adds	r0, r3, r5
    cf9c:	f7fe ef44 	blx	be28 <_ZN7android22QualcommCameraHardware22supportsSceneDetectionEv-0x5dc>
    cfa0:	e002      	b.n	cfa8 <_ZNK7android22QualcommCameraHardware14getPreviewHeapEv+0x54>
    cfa2:	a801      	add	r0, sp, #4
    cfa4:	f7ff ff2c 	bl	ce00 <_ZN7android2spINS_14MemoryHeapBaseEEC1EPS1_>
    cfa8:	ad01      	add	r5, sp, #4
    cfaa:	4620      	mov	r0, r4
    cfac:	4629      	mov	r1, r5
    cfae:	f7ff ff35 	bl	ce1c <_ZN7android2spINS_11IMemoryHeapEEC1INS_14MemoryHeapBaseEEERKNS0_IT_EE>
    cfb2:	4628      	mov	r0, r5
    cfb4:	e015      	b.n	cfe2 <_ZNK7android22QualcommCameraHardware14getPreviewHeapEv+0x8e>
    cfb6:	6c49      	ldr	r1, [r1, #68]	; 0x44
    cfb8:	b151      	cbz	r1, cfd0 <_ZNK7android22QualcommCameraHardware14getPreviewHeapEv+0x7c>
    cfba:	698b      	ldr	r3, [r1, #24]
    cfbc:	9300      	str	r3, [sp, #0]
    cfbe:	b153      	cbz	r3, cfd6 <_ZNK7android22QualcommCameraHardware14getPreviewHeapEv+0x82>
    cfc0:	681a      	ldr	r2, [r3, #0]
    cfc2:	f852 1c10 	ldr.w	r1, [r2, #-16]
    cfc6:	1858      	adds	r0, r3, r1
    cfc8:	4669      	mov	r1, sp
    cfca:	f7fe ef2e 	blx	be28 <_ZN7android22QualcommCameraHardware22supportsSceneDetectionEv-0x5dc>
    cfce:	e002      	b.n	cfd6 <_ZNK7android22QualcommCameraHardware14getPreviewHeapEv+0x82>
    cfd0:	4668      	mov	r0, sp
    cfd2:	f7ff ff15 	bl	ce00 <_ZN7android2spINS_14MemoryHeapBaseEEC1EPS1_>
    cfd6:	4620      	mov	r0, r4
    cfd8:	4669      	mov	r1, sp
    cfda:	f7ff ff1f 	bl	ce1c <_ZN7android2spINS_11IMemoryHeapEEC1INS_14MemoryHeapBaseEEERKNS0_IT_EE>
    cfde:	466d      	mov	r5, sp
    cfe0:	4668      	mov	r0, sp
    cfe2:	f7ff ffa9 	bl	cf38 <_ZN7android2spINS_14MemoryHeapBaseEED1Ev>
    cfe6:	4620      	mov	r0, r4
    cfe8:	bd3e      	pop	{r1, r2, r3, r4, r5, pc}
    cfea:	bf00      	nop
    cfec:	2eca      	cmp	r6, #202	; 0xca
    cfee:	0001      	lsls	r1, r0, #0
    cff0:	2dd0      	cmp	r5, #208	; 0xd0
    cff2:	0001      	lsls	r1, r0, #0

0000cff4 <_ZNK7android22QualcommCameraHardware10getRawHeapEv>:
    cff4:	b537      	push	{r0, r1, r2, r4, r5, lr}
    cff6:	6d09      	ldr	r1, [r1, #80]	; 0x50
    cff8:	4604      	mov	r4, r0
    cffa:	b151      	cbz	r1, d012 <_ZNK7android22QualcommCameraHardware10getRawHeapEv+0x1e>
    cffc:	698b      	ldr	r3, [r1, #24]
    cffe:	9301      	str	r3, [sp, #4]
    d000:	b153      	cbz	r3, d018 <_ZNK7android22QualcommCameraHardware10getRawHeapEv+0x24>
    d002:	681a      	ldr	r2, [r3, #0]
    d004:	a901      	add	r1, sp, #4
    d006:	f852 0c10 	ldr.w	r0, [r2, #-16]
    d00a:	1818      	adds	r0, r3, r0
    d00c:	f7fe ef0c 	blx	be28 <_ZN7android22QualcommCameraHardware22supportsSceneDetectionEv-0x5dc>
    d010:	e002      	b.n	d018 <_ZNK7android22QualcommCameraHardware10getRawHeapEv+0x24>
    d012:	a801      	add	r0, sp, #4
    d014:	f7ff fef4 	bl	ce00 <_ZN7android2spINS_14MemoryHeapBaseEEC1EPS1_>
    d018:	ad01      	add	r5, sp, #4
    d01a:	4620      	mov	r0, r4
    d01c:	4629      	mov	r1, r5
    d01e:	f7ff fefd 	bl	ce1c <_ZN7android2spINS_11IMemoryHeapEEC1INS_14MemoryHeapBaseEEERKNS0_IT_EE>
    d022:	4628      	mov	r0, r5
    d024:	f7ff ff88 	bl	cf38 <_ZN7android2spINS_14MemoryHeapBaseEED1Ev>
    d028:	4620      	mov	r0, r4
    d02a:	bd3e      	pop	{r1, r2, r3, r4, r5, pc}

0000d02c <_ZN7android2spINS_22QualcommCameraHardware10MMCameraDLEED1Ev>:
    d02c:	b510      	push	{r4, lr}
    d02e:	4604      	mov	r4, r0
    d030:	6800      	ldr	r0, [r0, #0]
    d032:	b110      	cbz	r0, d03a <_ZN7android2spINS_22QualcommCameraHardware10MMCameraDLEED1Ev+0xe>
    d034:	4621      	mov	r1, r4
    d036:	f7fe eefe 	blx	be34 <_ZN7android22QualcommCameraHardware22supportsSceneDetectionEv-0x5d0>
    d03a:	4620      	mov	r0, r4
    d03c:	bd10      	pop	{r4, pc}
    d03e:	bf00      	nop

0000d040 <_ZN7android2spINS_22QualcommCameraHardware10MMCameraDLEEaSERKS3_>:
    d040:	b570      	push	{r4, r5, r6, lr}
    d042:	680d      	ldr	r5, [r1, #0]
    d044:	4604      	mov	r4, r0
    d046:	b11d      	cbz	r5, d050 <_ZN7android2spINS_22QualcommCameraHardware10MMCameraDLEEaSERKS3_+0x10>
    d048:	4628      	mov	r0, r5
    d04a:	4621      	mov	r1, r4
    d04c:	f7fe eeec 	blx	be28 <_ZN7android22QualcommCameraHardware22supportsSceneDetectionEv-0x5dc>
    d050:	6820      	ldr	r0, [r4, #0]
    d052:	b110      	cbz	r0, d05a <_ZN7android2spINS_22QualcommCameraHardware10MMCameraDLEEaSERKS3_+0x1a>
    d054:	4621      	mov	r1, r4
    d056:	f7fe eeee 	blx	be34 <_ZN7android22QualcommCameraHardware22supportsSceneDetectionEv-0x5d0>
    d05a:	6025      	str	r5, [r4, #0]
    d05c:	4620      	mov	r0, r4
    d05e:	bd70      	pop	{r4, r5, r6, pc}

0000d060 <_ZN7android2spINS_14MemoryHeapBaseEEaSINS_14MemoryHeapPmemEEERS2_RKNS0_IT_EE>:
    d060:	b570      	push	{r4, r5, r6, lr}
    d062:	680d      	ldr	r5, [r1, #0]
    d064:	4604      	mov	r4, r0
    d066:	b135      	cbz	r5, d076 <_ZN7android2spINS_14MemoryHeapBaseEEaSINS_14MemoryHeapPmemEEERS2_RKNS0_IT_EE+0x16>
    d068:	682b      	ldr	r3, [r5, #0]
    d06a:	4621      	mov	r1, r4
    d06c:	f853 0c10 	ldr.w	r0, [r3, #-16]
    d070:	1828      	adds	r0, r5, r0
    d072:	f7fe eeda 	blx	be28 <_ZN7android22QualcommCameraHardware22supportsSceneDetectionEv-0x5dc>
    d076:	6823      	ldr	r3, [r4, #0]
    d078:	b133      	cbz	r3, d088 <_ZN7android2spINS_14MemoryHeapBaseEEaSINS_14MemoryHeapPmemEEERS2_RKNS0_IT_EE+0x28>
    d07a:	681a      	ldr	r2, [r3, #0]
    d07c:	f852 1c10 	ldr.w	r1, [r2, #-16]
    d080:	1858      	adds	r0, r3, r1
    d082:	4621      	mov	r1, r4
    d084:	f7fe eed6 	blx	be34 <_ZN7android22QualcommCameraHardware22supportsSceneDetectionEv-0x5d0>
    d088:	6025      	str	r5, [r4, #0]
    d08a:	4620      	mov	r0, r4
    d08c:	bd70      	pop	{r4, r5, r6, pc}
    d08e:	bf00      	nop

0000d090 <_ZN7android2spINS_14MemoryHeapPmemEED1Ev>:
    d090:	b510      	push	{r4, lr}
    d092:	6803      	ldr	r3, [r0, #0]
    d094:	4604      	mov	r4, r0
    d096:	b133      	cbz	r3, d0a6 <_ZN7android2spINS_14MemoryHeapPmemEED1Ev+0x16>
    d098:	681a      	ldr	r2, [r3, #0]
    d09a:	4621      	mov	r1, r4
    d09c:	f852 0c10 	ldr.w	r0, [r2, #-16]
    d0a0:	1818      	adds	r0, r3, r0
    d0a2:	f7fe eec8 	blx	be34 <_ZN7android22QualcommCameraHardware22supportsSceneDetectionEv-0x5d0>
    d0a6:	4620      	mov	r0, r4
    d0a8:	bd10      	pop	{r4, pc}
    d0aa:	bf00      	nop

0000d0ac <_ZN7android2spINS_14MemoryHeapBaseEEaSEPS1_>:
    d0ac:	b570      	push	{r4, r5, r6, lr}
    d0ae:	4604      	mov	r4, r0
    d0b0:	460d      	mov	r5, r1
    d0b2:	b131      	cbz	r1, d0c2 <_ZN7android2spINS_14MemoryHeapBaseEEaSEPS1_+0x16>
    d0b4:	680b      	ldr	r3, [r1, #0]
    d0b6:	f853 0c10 	ldr.w	r0, [r3, #-16]
    d0ba:	1808      	adds	r0, r1, r0
    d0bc:	4621      	mov	r1, r4
    d0be:	f7fe eeb4 	blx	be28 <_ZN7android22QualcommCameraHardware22supportsSceneDetectionEv-0x5dc>
    d0c2:	6823      	ldr	r3, [r4, #0]
    d0c4:	b133      	cbz	r3, d0d4 <_ZN7android2spINS_14MemoryHeapBaseEEaSEPS1_+0x28>
    d0c6:	681a      	ldr	r2, [r3, #0]
    d0c8:	f852 1c10 	ldr.w	r1, [r2, #-16]
    d0cc:	1858      	adds	r0, r3, r1
    d0ce:	4621      	mov	r1, r4
    d0d0:	f7fe eeb0 	blx	be34 <_ZN7android22QualcommCameraHardware22supportsSceneDetectionEv-0x5d0>
    d0d4:	6025      	str	r5, [r4, #0]
    d0d6:	4620      	mov	r0, r4
    d0d8:	bd70      	pop	{r4, r5, r6, pc}
    d0da:	bf00      	nop

0000d0dc <_ZN7android2spINS_10MemoryBaseEEaSEPS1_>:
    d0dc:	b570      	push	{r4, r5, r6, lr}
    d0de:	4604      	mov	r4, r0
    d0e0:	460d      	mov	r5, r1
    d0e2:	b131      	cbz	r1, d0f2 <_ZN7android2spINS_10MemoryBaseEEaSEPS1_+0x16>
    d0e4:	680b      	ldr	r3, [r1, #0]
    d0e6:	f853 0c0c 	ldr.w	r0, [r3, #-12]
    d0ea:	1808      	adds	r0, r1, r0
    d0ec:	4621      	mov	r1, r4
    d0ee:	f7fe ee9c 	blx	be28 <_ZN7android22QualcommCameraHardware22supportsSceneDetectionEv-0x5dc>
    d0f2:	6823      	ldr	r3, [r4, #0]
    d0f4:	b133      	cbz	r3, d104 <_ZN7android2spINS_10MemoryBaseEEaSEPS1_+0x28>
    d0f6:	681a      	ldr	r2, [r3, #0]
    d0f8:	f852 1c0c 	ldr.w	r1, [r2, #-12]
    d0fc:	1858      	adds	r0, r3, r1
    d0fe:	4621      	mov	r1, r4
    d100:	f7fe ee98 	blx	be34 <_ZN7android22QualcommCameraHardware22supportsSceneDetectionEv-0x5d0>
    d104:	6025      	str	r5, [r4, #0]
    d106:	4620      	mov	r0, r4
    d108:	bd70      	pop	{r4, r5, r6, pc}
    d10a:	bf00      	nop

0000d10c <_ZN7android2spINS_11IMemoryHeapEED1Ev>:
    d10c:	b510      	push	{r4, lr}
    d10e:	6803      	ldr	r3, [r0, #0]
    d110:	4604      	mov	r4, r0
    d112:	b133      	cbz	r3, d122 <_ZN7android2spINS_11IMemoryHeapEED1Ev+0x16>
    d114:	681a      	ldr	r2, [r3, #0]
    d116:	4621      	mov	r1, r4
    d118:	f852 0c0c 	ldr.w	r0, [r2, #-12]
    d11c:	1818      	adds	r0, r3, r0
    d11e:	f7fe ee8a 	blx	be34 <_ZN7android22QualcommCameraHardware22supportsSceneDetectionEv-0x5d0>
    d122:	4620      	mov	r0, r4
    d124:	bd10      	pop	{r4, pc}
    d126:	bf00      	nop

0000d128 <_ZN7android22QualcommCameraHardware21releaseRecordingFrameERKNS_2spINS_7IMemoryEEE>:
    d128:	e92d 43f0 	stmdb	sp!, {r4, r5, r6, r7, r8, r9, lr}
    d12c:	4604      	mov	r4, r0
    d12e:	b087      	sub	sp, #28
    d130:	f500 70ac 	add.w	r0, r0, #344	; 0x158
    d134:	460e      	mov	r6, r1
    d136:	f7ff fd93 	bl	cc60 <_ZN7android22QualcommCameraHardware10MMCameraDLD2Ev+0x4c>
    d13a:	2101      	movs	r1, #1
    d13c:	f504 70ae 	add.w	r0, r4, #348	; 0x15c
    d140:	f884 1145 	strb.w	r1, [r4, #325]	; 0x145
    d144:	f7fe ee6a 	blx	be1c <_ZN7android22QualcommCameraHardware22supportsSceneDetectionEv-0x5e8>
    d148:	483a      	ldr	r0, [pc, #232]	; (d234 <_ZN7android22QualcommCameraHardware21releaseRecordingFrameERKNS_2spINS_7IMemoryEEE+0x10c>)
    d14a:	4d3b      	ldr	r5, [pc, #236]	; (d238 <_ZN7android22QualcommCameraHardware21releaseRecordingFrameERKNS_2spINS_7IMemoryEEE+0x110>)
    d14c:	4478      	add	r0, pc
    d14e:	6800      	ldr	r0, [r0, #0]
    d150:	1f03      	subs	r3, r0, #4
    d152:	447d      	add	r5, pc
    d154:	2b02      	cmp	r3, #2
    d156:	d866      	bhi.n	d226 <_ZN7android22QualcommCameraHardware21releaseRecordingFrameERKNS_2spINS_7IMemoryEEE+0xfe>
    d158:	6831      	ldr	r1, [r6, #0]
    d15a:	a803      	add	r0, sp, #12
    d15c:	f8df 80dc 	ldr.w	r8, [pc, #220]	; d23c <_ZN7android22QualcommCameraHardware21releaseRecordingFrameERKNS_2spINS_7IMemoryEEE+0x114>
    d160:	ab04      	add	r3, sp, #16
    d162:	2700      	movs	r7, #0
    d164:	680a      	ldr	r2, [r1, #0]
    d166:	44f8      	add	r8, pc
    d168:	6916      	ldr	r6, [r2, #16]
    d16a:	aa05      	add	r2, sp, #20
    d16c:	47b0      	blx	r6
    d16e:	463e      	mov	r6, r7
    d170:	e013      	b.n	d19a <_ZN7android22QualcommCameraHardware21releaseRecordingFrameERKNS_2spINS_7IMemoryEEE+0x72>
    d172:	f8d4 23d8 	ldr.w	r2, [r4, #984]	; 0x3d8
    d176:	9803      	ldr	r0, [sp, #12]
    d178:	19d3      	adds	r3, r2, r7
    d17a:	f8d3 9010 	ldr.w	r9, [r3, #16]
    d17e:	f7ff f927 	bl	c3d0 <_ZN7android22QualcommCameraHardware22supportsSceneDetectionEv-0x34>
    d182:	9905      	ldr	r1, [sp, #20]
    d184:	f107 0344 	add.w	r3, r7, #68	; 0x44
    d188:	1840      	adds	r0, r0, r1
    d18a:	4581      	cmp	r9, r0
    d18c:	d103      	bne.n	d196 <_ZN7android22QualcommCameraHardware21releaseRecordingFrameERKNS_2spINS_7IMemoryEEE+0x6e>
    d18e:	f8d4 03d8 	ldr.w	r0, [r4, #984]	; 0x3d8
    d192:	19c7      	adds	r7, r0, r7
    d194:	e006      	b.n	d1a4 <_ZN7android22QualcommCameraHardware21releaseRecordingFrameERKNS_2spINS_7IMemoryEEE+0x7c>
    d196:	3601      	adds	r6, #1
    d198:	461f      	mov	r7, r3
    d19a:	f8d8 1064 	ldr.w	r1, [r8, #100]	; 0x64
    d19e:	428e      	cmp	r6, r1
    d1a0:	dbe7      	blt.n	d172 <_ZN7android22QualcommCameraHardware21releaseRecordingFrameERKNS_2spINS_7IMemoryEEE+0x4a>
    d1a2:	2700      	movs	r7, #0
    d1a4:	f8df 9098 	ldr.w	r9, [pc, #152]	; d240 <_ZN7android22QualcommCameraHardware21releaseRecordingFrameERKNS_2spINS_7IMemoryEEE+0x118>
    d1a8:	44f9      	add	r9, pc
    d1aa:	f8d9 3064 	ldr.w	r3, [r9, #100]	; 0x64
    d1ae:	429e      	cmp	r6, r3
    d1b0:	da16      	bge.n	d1e0 <_ZN7android22QualcommCameraHardware21releaseRecordingFrameERKNS_2spINS_7IMemoryEEE+0xb8>
    d1b2:	f104 00b0 	add.w	r0, r4, #176	; 0xb0
    d1b6:	f7ff fd53 	bl	cc60 <_ZN7android22QualcommCameraHardware10MMCameraDLD2Ev+0x4c>
    d1ba:	f894 20ac 	ldrb.w	r2, [r4, #172]	; 0xac
    d1be:	b152      	cbz	r2, d1d6 <_ZN7android22QualcommCameraHardware21releaseRecordingFrameERKNS_2spINS_7IMemoryEEE+0xae>
    d1c0:	f8df c080 	ldr.w	ip, [pc, #128]	; d244 <_ZN7android22QualcommCameraHardware21releaseRecordingFrameERKNS_2spINS_7IMemoryEEE+0x11c>
    d1c4:	2000      	movs	r0, #0
    d1c6:	f8d4 23dc 	ldr.w	r2, [r4, #988]	; 0x3dc
    d1ca:	f855 100c 	ldr.w	r1, [r5, ip]
    d1ce:	5590      	strb	r0, [r2, r6]
    d1d0:	680b      	ldr	r3, [r1, #0]
    d1d2:	4639      	mov	r1, r7
    d1d4:	4798      	blx	r3
    d1d6:	f104 00b0 	add.w	r0, r4, #176	; 0xb0
    d1da:	f7fe ee1a 	blx	be10 <_ZN7android22QualcommCameraHardware22supportsSceneDetectionEv-0x5f4>
    d1de:	e01f      	b.n	d220 <_ZN7android22QualcommCameraHardware21releaseRecordingFrameERKNS_2spINS_7IMemoryEEE+0xf8>
    d1e0:	4919      	ldr	r1, [pc, #100]	; (d248 <_ZN7android22QualcommCameraHardware21releaseRecordingFrameERKNS_2spINS_7IMemoryEEE+0x120>)
    d1e2:	2006      	movs	r0, #6
    d1e4:	4a19      	ldr	r2, [pc, #100]	; (d24c <_ZN7android22QualcommCameraHardware21releaseRecordingFrameERKNS_2spINS_7IMemoryEEE+0x124>)
    d1e6:	2600      	movs	r6, #0
    d1e8:	4f19      	ldr	r7, [pc, #100]	; (d250 <_ZN7android22QualcommCameraHardware21releaseRecordingFrameERKNS_2spINS_7IMemoryEEE+0x128>)
    d1ea:	4479      	add	r1, pc
    d1ec:	f8df 8064 	ldr.w	r8, [pc, #100]	; d254 <_ZN7android22QualcommCameraHardware21releaseRecordingFrameERKNS_2spINS_7IMemoryEEE+0x12c>
    d1f0:	447a      	add	r2, pc
    d1f2:	f7fe edc6 	blx	bd80 <_ZN7android22QualcommCameraHardware22supportsSceneDetectionEv-0x684>
    d1f6:	4635      	mov	r5, r6
    d1f8:	447f      	add	r7, pc
    d1fa:	44f8      	add	r8, pc
    d1fc:	e00c      	b.n	d218 <_ZN7android22QualcommCameraHardware21releaseRecordingFrameERKNS_2spINS_7IMemoryEEE+0xf0>
    d1fe:	f8d4 13d8 	ldr.w	r1, [r4, #984]	; 0x3d8
    d202:	4642      	mov	r2, r8
    d204:	198b      	adds	r3, r1, r6
    d206:	4639      	mov	r1, r7
    d208:	3644      	adds	r6, #68	; 0x44
    d20a:	6918      	ldr	r0, [r3, #16]
    d20c:	462b      	mov	r3, r5
    d20e:	3501      	adds	r5, #1
    d210:	9000      	str	r0, [sp, #0]
    d212:	2006      	movs	r0, #6
    d214:	f7fe edb4 	blx	bd80 <_ZN7android22QualcommCameraHardware22supportsSceneDetectionEv-0x684>
    d218:	f8d9 2064 	ldr.w	r2, [r9, #100]	; 0x64
    d21c:	4295      	cmp	r5, r2
    d21e:	dbee      	blt.n	d1fe <_ZN7android22QualcommCameraHardware21releaseRecordingFrameERKNS_2spINS_7IMemoryEEE+0xd6>
    d220:	a803      	add	r0, sp, #12
    d222:	f7ff ff73 	bl	d10c <_ZN7android2spINS_11IMemoryHeapEED1Ev>
    d226:	f504 70ac 	add.w	r0, r4, #344	; 0x158
    d22a:	f7fe edf2 	blx	be10 <_ZN7android22QualcommCameraHardware22supportsSceneDetectionEv-0x5f4>
    d22e:	b007      	add	sp, #28
    d230:	e8bd 83f0 	ldmia.w	sp!, {r4, r5, r6, r7, r8, r9, pc}
    d234:	2bf0      	cmp	r3, #240	; 0xf0
    d236:	0001      	lsls	r1, r0, #0
    d238:	29a6      	cmp	r1, #166	; 0xa6
    d23a:	0001      	lsls	r1, r0, #0
    d23c:	2cc6      	cmp	r4, #198	; 0xc6
    d23e:	0001      	lsls	r1, r0, #0
    d240:	2c84      	cmp	r4, #132	; 0x84
    d242:	0001      	lsls	r1, r0, #0
    d244:	fd80 ffff 	stc2	15, cr15, [r0, #1020]	; 0x3fc
    d248:	d1e2      	bne.n	d210 <_ZN7android22QualcommCameraHardware21releaseRecordingFrameERKNS_2spINS_7IMemoryEEE+0xe8>
    d24a:	0000      	lsls	r0, r0, #0
    d24c:	d4c7      	bmi.n	d1de <_ZN7android22QualcommCameraHardware21releaseRecordingFrameERKNS_2spINS_7IMemoryEEE+0xb6>
    d24e:	0000      	lsls	r0, r0, #0
    d250:	d1d4      	bne.n	d1fc <_ZN7android22QualcommCameraHardware21releaseRecordingFrameERKNS_2spINS_7IMemoryEEE+0xd4>
    d252:	0000      	lsls	r0, r0, #0
    d254:	d4f6      	bmi.n	d244 <_ZN7android22QualcommCameraHardware21releaseRecordingFrameERKNS_2spINS_7IMemoryEEE+0x11c>
	...

0000d258 <_ZN7android2spINS_22QualcommCameraHardware10MMCameraDLEEaSEPS2_>:
    d258:	b570      	push	{r4, r5, r6, lr}
    d25a:	4604      	mov	r4, r0
    d25c:	460d      	mov	r5, r1
    d25e:	b119      	cbz	r1, d268 <_ZN7android2spINS_22QualcommCameraHardware10MMCameraDLEEaSEPS2_+0x10>
    d260:	4608      	mov	r0, r1
    d262:	4621      	mov	r1, r4
    d264:	f7fe ede0 	blx	be28 <_ZN7android22QualcommCameraHardware22supportsSceneDetectionEv-0x5dc>
    d268:	6820      	ldr	r0, [r4, #0]
    d26a:	b110      	cbz	r0, d272 <_ZN7android2spINS_22QualcommCameraHardware10MMCameraDLEEaSEPS2_+0x1a>
    d26c:	4621      	mov	r1, r4
    d26e:	f7fe ede2 	blx	be34 <_ZN7android22QualcommCameraHardware22supportsSceneDetectionEv-0x5d0>
    d272:	6025      	str	r5, [r4, #0]
    d274:	4620      	mov	r0, r4
    d276:	bd70      	pop	{r4, r5, r6, pc}

0000d278 <_ZN7android2spINS_7IMemoryEED1Ev>:
    d278:	b510      	push	{r4, lr}
    d27a:	6803      	ldr	r3, [r0, #0]
    d27c:	4604      	mov	r4, r0
    d27e:	b133      	cbz	r3, d28e <_ZN7android2spINS_7IMemoryEED1Ev+0x16>
    d280:	681a      	ldr	r2, [r3, #0]
    d282:	4621      	mov	r1, r4
    d284:	f852 0c0c 	ldr.w	r0, [r2, #-12]
    d288:	1818      	adds	r0, r3, r0
    d28a:	f7fe edd4 	blx	be34 <_ZN7android22QualcommCameraHardware22supportsSceneDetectionEv-0x5d0>
    d28e:	4620      	mov	r0, r4
    d290:	bd10      	pop	{r4, pc}
    d292:	bf00      	nop

0000d294 <_ZN7android2spINS_22QualcommCameraHardware8PmemPoolEEaSERKS3_>:
    d294:	b570      	push	{r4, r5, r6, lr}
    d296:	680d      	ldr	r5, [r1, #0]
    d298:	4604      	mov	r4, r0
    d29a:	b11d      	cbz	r5, d2a4 <_ZN7android2spINS_22QualcommCameraHardware8PmemPoolEEaSERKS3_+0x10>
    d29c:	4628      	mov	r0, r5
    d29e:	4621      	mov	r1, r4
    d2a0:	f7fe edc2 	blx	be28 <_ZN7android22QualcommCameraHardware22supportsSceneDetectionEv-0x5dc>
    d2a4:	6820      	ldr	r0, [r4, #0]
    d2a6:	b110      	cbz	r0, d2ae <_ZN7android2spINS_22QualcommCameraHardware8PmemPoolEEaSERKS3_+0x1a>
    d2a8:	4621      	mov	r1, r4
    d2aa:	f7fe edc4 	blx	be34 <_ZN7android22QualcommCameraHardware22supportsSceneDetectionEv-0x5d0>
    d2ae:	6025      	str	r5, [r4, #0]
    d2b0:	4620      	mov	r0, r4
    d2b2:	bd70      	pop	{r4, r5, r6, pc}

0000d2b4 <_ZN7android22QualcommCameraHardware13notifyShutterEP13common_crop_tb>:
    d2b4:	b5f7      	push	{r0, r1, r2, r4, r5, r6, r7, lr}
    d2b6:	f100 05fc 	add.w	r5, r0, #252	; 0xfc
    d2ba:	4604      	mov	r4, r0
    d2bc:	4617      	mov	r7, r2
    d2be:	4628      	mov	r0, r5
    d2c0:	460e      	mov	r6, r1
    d2c2:	f7ff fccd 	bl	cc60 <_ZN7android22QualcommCameraHardware10MMCameraDLD2Ev+0x4c>
    d2c6:	b14f      	cbz	r7, d2dc <_ZN7android22QualcommCameraHardware13notifyShutterEP13common_crop_tb+0x28>
    d2c8:	2002      	movs	r0, #2
    d2ca:	f8d4 63ec 	ldr.w	r6, [r4, #1004]	; 0x3ec
    d2ce:	2100      	movs	r1, #0
    d2d0:	2201      	movs	r2, #1
    d2d2:	f8d4 33f8 	ldr.w	r3, [r4, #1016]	; 0x3f8
    d2d6:	47b0      	blx	r6
    d2d8:	4628      	mov	r0, r5
    d2da:	e039      	b.n	d350 <_ZN7android22QualcommCameraHardware13notifyShutterEP13common_crop_tb+0x9c>
    d2dc:	f894 30f8 	ldrb.w	r3, [r4, #248]	; 0xf8
    d2e0:	2b00      	cmp	r3, #0
    d2e2:	d033      	beq.n	d34c <_ZN7android22QualcommCameraHardware13notifyShutterEP13common_crop_tb+0x98>
    d2e4:	f8d4 03ec 	ldr.w	r0, [r4, #1004]	; 0x3ec
    d2e8:	b380      	cbz	r0, d34c <_ZN7android22QualcommCameraHardware13notifyShutterEP13common_crop_tb+0x98>
    d2ea:	f8d4 13e8 	ldr.w	r1, [r4, #1000]	; 0x3e8
    d2ee:	078b      	lsls	r3, r1, #30
    d2f0:	d52c      	bpl.n	d34c <_ZN7android22QualcommCameraHardware13notifyShutterEP13common_crop_tb+0x98>
    d2f2:	f104 0550 	add.w	r5, r4, #80	; 0x50
    d2f6:	f104 0168 	add.w	r1, r4, #104	; 0x68
    d2fa:	4628      	mov	r0, r5
    d2fc:	f7ff ffca 	bl	d294 <_ZN7android2spINS_22QualcommCameraHardware8PmemPoolEEaSERKS3_>
    d300:	b12e      	cbz	r6, d30e <_ZN7android22QualcommCameraHardware13notifyShutterEP13common_crop_tb+0x5a>
    d302:	6832      	ldr	r2, [r6, #0]
    d304:	b11a      	cbz	r2, d30e <_ZN7android22QualcommCameraHardware13notifyShutterEP13common_crop_tb+0x5a>
    d306:	68b3      	ldr	r3, [r6, #8]
    d308:	b10b      	cbz	r3, d30e <_ZN7android22QualcommCameraHardware13notifyShutterEP13common_crop_tb+0x5a>
    d30a:	9200      	str	r2, [sp, #0]
    d30c:	e004      	b.n	d318 <_ZN7android22QualcommCameraHardware13notifyShutterEP13common_crop_tb+0x64>
    d30e:	f8d4 2448 	ldr.w	r2, [r4, #1096]	; 0x448
    d312:	f8d4 344c 	ldr.w	r3, [r4, #1100]	; 0x44c
    d316:	9200      	str	r2, [sp, #0]
    d318:	9301      	str	r3, [sp, #4]
    d31a:	f894 343c 	ldrb.w	r3, [r4, #1084]	; 0x43c
    d31e:	b153      	cbz	r3, d336 <_ZN7android22QualcommCameraHardware13notifyShutterEP13common_crop_tb+0x82>
    d320:	4628      	mov	r0, r5
    d322:	f104 014c 	add.w	r1, r4, #76	; 0x4c
    d326:	f7ff ffb5 	bl	d294 <_ZN7android2spINS_22QualcommCameraHardware8PmemPoolEEaSERKS3_>
    d32a:	f8d4 0440 	ldr.w	r0, [r4, #1088]	; 0x440
    d32e:	f8d4 5444 	ldr.w	r5, [r4, #1092]	; 0x444
    d332:	9000      	str	r0, [sp, #0]
    d334:	9501      	str	r5, [sp, #4]
    d336:	4669      	mov	r1, sp
    d338:	f8d4 53ec 	ldr.w	r5, [r4, #1004]	; 0x3ec
    d33c:	2002      	movs	r0, #2
    d33e:	2200      	movs	r2, #0
    d340:	f8d4 33f8 	ldr.w	r3, [r4, #1016]	; 0x3f8
    d344:	47a8      	blx	r5
    d346:	2100      	movs	r1, #0
    d348:	f884 10f8 	strb.w	r1, [r4, #248]	; 0xf8
    d34c:	f104 00fc 	add.w	r0, r4, #252	; 0xfc
    d350:	f7fe ed5e 	blx	be10 <_ZN7android22QualcommCameraHardware22supportsSceneDetectionEv-0x5f4>
    d354:	bdfe      	pop	{r1, r2, r3, r4, r5, r6, r7, pc}
    d356:	bf00      	nop

0000d358 <_ZN7android2spINS_22QualcommCameraHardware10AshmemPoolEE5clearEv>:
    d358:	b510      	push	{r4, lr}
    d35a:	4604      	mov	r4, r0
    d35c:	6800      	ldr	r0, [r0, #0]
    d35e:	b120      	cbz	r0, d36a <_ZN7android2spINS_22QualcommCameraHardware10AshmemPoolEE5clearEv+0x12>
    d360:	4621      	mov	r1, r4
    d362:	f7fe ed68 	blx	be34 <_ZN7android22QualcommCameraHardware22supportsSceneDetectionEv-0x5d0>
    d366:	2300      	movs	r3, #0
    d368:	6023      	str	r3, [r4, #0]
    d36a:	bd10      	pop	{r4, pc}

0000d36c <_ZN7android22QualcommCameraHardware15setHistogramOffEv>:
    d36c:	b570      	push	{r4, r5, r6, lr}
    d36e:	4605      	mov	r5, r0
    d370:	f100 04e4 	add.w	r4, r0, #228	; 0xe4
    d374:	4620      	mov	r0, r4
    d376:	f7ff fc73 	bl	cc60 <_ZN7android22QualcommCameraHardware10MMCameraDLD2Ev+0x4c>
    d37a:	f8d5 30d8 	ldr.w	r3, [r5, #216]	; 0xd8
    d37e:	b19b      	cbz	r3, d3a8 <_ZN7android22QualcommCameraHardware15setHistogramOffEv+0x3c>
    d380:	462e      	mov	r6, r5
    d382:	2100      	movs	r1, #0
    d384:	4620      	mov	r0, r4
    d386:	f846 1fd8 	str.w	r1, [r6, #216]!
    d38a:	f7fe ed42 	blx	be10 <_ZN7android22QualcommCameraHardware22supportsSceneDetectionEv-0x5f4>
    d38e:	4809      	ldr	r0, [pc, #36]	; (d3b4 <_ZN7android22QualcommCameraHardware15setHistogramOffEv+0x48>)
    d390:	4631      	mov	r1, r6
    d392:	4478      	add	r0, pc
    d394:	6ec2      	ldr	r2, [r0, #108]	; 0x6c
    d396:	2002      	movs	r0, #2
    d398:	4790      	blx	r2
    d39a:	4620      	mov	r0, r4
    d39c:	f7ff fc60 	bl	cc60 <_ZN7android22QualcommCameraHardware10MMCameraDLD2Ev+0x4c>
    d3a0:	f105 0058 	add.w	r0, r5, #88	; 0x58
    d3a4:	f7ff ffd8 	bl	d358 <_ZN7android2spINS_22QualcommCameraHardware10AshmemPoolEE5clearEv>
    d3a8:	4620      	mov	r0, r4
    d3aa:	f7fe ed32 	blx	be10 <_ZN7android22QualcommCameraHardware22supportsSceneDetectionEv-0x5f4>
    d3ae:	2000      	movs	r0, #0
    d3b0:	bd70      	pop	{r4, r5, r6, pc}
    d3b2:	bf00      	nop
    d3b4:	2a9a      	cmp	r2, #154	; 0x9a
    d3b6:	0001      	lsls	r1, r0, #0

0000d3b8 <_ZN7android22QualcommCameraHardware9deinitRawEv>:
    d3b8:	b510      	push	{r4, lr}
    d3ba:	4604      	mov	r4, r0
    d3bc:	f100 0054 	add.w	r0, r0, #84	; 0x54
    d3c0:	f7ff ffca 	bl	d358 <_ZN7android2spINS_22QualcommCameraHardware10AshmemPoolEE5clearEv>
    d3c4:	f104 004c 	add.w	r0, r4, #76	; 0x4c
    d3c8:	f7ff fd72 	bl	ceb0 <_ZN7android2spINS_22QualcommCameraHardware8PmemPoolEE5clearEv>
    d3cc:	4b06      	ldr	r3, [pc, #24]	; (d3e8 <_ZN7android22QualcommCameraHardware9deinitRawEv+0x30>)
    d3ce:	447b      	add	r3, pc
    d3d0:	681b      	ldr	r3, [r3, #0]
    d3d2:	2b06      	cmp	r3, #6
    d3d4:	d007      	beq.n	d3e6 <_ZN7android22QualcommCameraHardware9deinitRawEv+0x2e>
    d3d6:	f104 0068 	add.w	r0, r4, #104	; 0x68
    d3da:	f7ff fd69 	bl	ceb0 <_ZN7android2spINS_22QualcommCameraHardware8PmemPoolEE5clearEv>
    d3de:	f104 0050 	add.w	r0, r4, #80	; 0x50
    d3e2:	f7ff fd65 	bl	ceb0 <_ZN7android2spINS_22QualcommCameraHardware8PmemPoolEE5clearEv>
    d3e6:	bd10      	pop	{r4, pc}
    d3e8:	296e      	cmp	r1, #110	; 0x6e
    d3ea:	0001      	lsls	r1, r0, #0

0000d3ec <_ZN7android22QualcommCameraHardware10encodeDataEv>:
    d3ec:	e92d 41f0 	stmdb	sp!, {r4, r5, r6, r7, r8, lr}
    d3f0:	4d26      	ldr	r5, [pc, #152]	; (d48c <_ZN7android22QualcommCameraHardware10encodeDataEv+0xa0>)
    d3f2:	f8d0 33f0 	ldr.w	r3, [r0, #1008]	; 0x3f0
    d3f6:	4604      	mov	r4, r0
    d3f8:	447d      	add	r5, pc
    d3fa:	b34b      	cbz	r3, d450 <_ZN7android22QualcommCameraHardware10encodeDataEv+0x64>
    d3fc:	f8d0 03e8 	ldr.w	r0, [r0, #1000]	; 0x3e8
    d400:	05c2      	lsls	r2, r0, #23
    d402:	d525      	bpl.n	d450 <_ZN7android22QualcommCameraHardware10encodeDataEv+0x64>
    d404:	f504 768a 	add.w	r6, r4, #276	; 0x114
    d408:	4630      	mov	r0, r6
    d40a:	f7ff fc29 	bl	cc60 <_ZN7android22QualcommCameraHardware10MMCameraDLD2Ev+0x4c>
    d40e:	2001      	movs	r0, #1
    d410:	f884 0110 	strb.w	r0, [r4, #272]	; 0x110
    d414:	4630      	mov	r0, r6
    d416:	f7fe ecfc 	blx	be10 <_ZN7android22QualcommCameraHardware22supportsSceneDetectionEv-0x5f4>
    d41a:	491d      	ldr	r1, [pc, #116]	; (d490 <_ZN7android22QualcommCameraHardware10encodeDataEv+0xa4>)
    d41c:	4a1d      	ldr	r2, [pc, #116]	; (d494 <_ZN7android22QualcommCameraHardware10encodeDataEv+0xa8>)
    d41e:	200f      	movs	r0, #15
    d420:	586b      	ldr	r3, [r5, r1]
    d422:	447a      	add	r2, pc
    d424:	f102 017c 	add.w	r1, r2, #124	; 0x7c
    d428:	3298      	adds	r2, #152	; 0x98
    d42a:	685f      	ldr	r7, [r3, #4]
    d42c:	47b8      	blx	r7
    d42e:	4630      	mov	r0, r6
    d430:	f7ff fc16 	bl	cc60 <_ZN7android22QualcommCameraHardware10MMCameraDLD2Ev+0x4c>
    d434:	f504 778c 	add.w	r7, r4, #280	; 0x118
    d438:	e003      	b.n	d442 <_ZN7android22QualcommCameraHardware10encodeDataEv+0x56>
    d43a:	4638      	mov	r0, r7
    d43c:	4631      	mov	r1, r6
    d43e:	f7ff fc09 	bl	cc54 <_ZN7android22QualcommCameraHardware10MMCameraDLD2Ev+0x40>
    d442:	f894 3110 	ldrb.w	r3, [r4, #272]	; 0x110
    d446:	2b00      	cmp	r3, #0
    d448:	d1f7      	bne.n	d43a <_ZN7android22QualcommCameraHardware10encodeDataEv+0x4e>
    d44a:	4630      	mov	r0, r6
    d44c:	f7fe ece0 	blx	be10 <_ZN7android22QualcommCameraHardware22supportsSceneDetectionEv-0x5f4>
    d450:	f8df c03c 	ldr.w	ip, [pc, #60]	; d490 <_ZN7android22QualcommCameraHardware10encodeDataEv+0xa4>
    d454:	2003      	movs	r0, #3
    d456:	f855 100c 	ldr.w	r1, [r5, ip]
    d45a:	68cd      	ldr	r5, [r1, #12]
    d45c:	2100      	movs	r1, #0
    d45e:	460a      	mov	r2, r1
    d460:	47a8      	blx	r5
    d462:	4620      	mov	r0, r4
    d464:	f504 7596 	add.w	r5, r4, #300	; 0x12c
    d468:	f7ff ffa6 	bl	d3b8 <_ZN7android22QualcommCameraHardware9deinitRawEv>
    d46c:	4628      	mov	r0, r5
    d46e:	f7ff fbf7 	bl	cc60 <_ZN7android22QualcommCameraHardware10MMCameraDLD2Ev+0x4c>
    d472:	2200      	movs	r2, #0
    d474:	f504 7098 	add.w	r0, r4, #304	; 0x130
    d478:	f884 2128 	strb.w	r2, [r4, #296]	; 0x128
    d47c:	f7fe ecce 	blx	be1c <_ZN7android22QualcommCameraHardware22supportsSceneDetectionEv-0x5e8>
    d480:	4628      	mov	r0, r5
    d482:	f7fe ecc6 	blx	be10 <_ZN7android22QualcommCameraHardware22supportsSceneDetectionEv-0x5f4>
    d486:	e8bd 81f0 	ldmia.w	sp!, {r4, r5, r6, r7, r8, pc}
    d48a:	bf00      	nop
    d48c:	2700      	movs	r7, #0
    d48e:	0001      	lsls	r1, r0, #0
    d490:	fd68 ffff 	stc2l	15, cr15, [r8, #-1020]!	; 0xfffffc04
    d494:	2a0a      	cmp	r2, #10
    d496:	0001      	lsls	r1, r0, #0

0000d498 <_ZN7android22QualcommCameraHardware16deinitZslBuffersEv>:
    d498:	4919      	ldr	r1, [pc, #100]	; (d500 <_ZN7android22QualcommCameraHardware16deinitZslBuffersEv+0x68>)
    d49a:	4a1a      	ldr	r2, [pc, #104]	; (d504 <_ZN7android22QualcommCameraHardware16deinitZslBuffersEv+0x6c>)
    d49c:	b510      	push	{r4, lr}
    d49e:	4604      	mov	r4, r0
    d4a0:	4479      	add	r1, pc
    d4a2:	447a      	add	r2, pc
    d4a4:	2006      	movs	r0, #6
    d4a6:	f7fe ec6c 	blx	bd80 <_ZN7android22QualcommCameraHardware22supportsSceneDetectionEv-0x684>
    d4aa:	f8d4 3454 	ldr.w	r3, [r4, #1108]	; 0x454
    d4ae:	b1eb      	cbz	r3, d4ec <_ZN7android22QualcommCameraHardware16deinitZslBuffersEv+0x54>
    d4b0:	6d60      	ldr	r0, [r4, #84]	; 0x54
    d4b2:	b118      	cbz	r0, d4bc <_ZN7android22QualcommCameraHardware16deinitZslBuffersEv+0x24>
    d4b4:	f104 0054 	add.w	r0, r4, #84	; 0x54
    d4b8:	f7ff ff4e 	bl	d358 <_ZN7android2spINS_22QualcommCameraHardware10AshmemPoolEE5clearEv>
    d4bc:	6ce1      	ldr	r1, [r4, #76]	; 0x4c
    d4be:	b119      	cbz	r1, d4c8 <_ZN7android22QualcommCameraHardware16deinitZslBuffersEv+0x30>
    d4c0:	f104 004c 	add.w	r0, r4, #76	; 0x4c
    d4c4:	f7ff fcf4 	bl	ceb0 <_ZN7android2spINS_22QualcommCameraHardware8PmemPoolEE5clearEv>
    d4c8:	6ea2      	ldr	r2, [r4, #104]	; 0x68
    d4ca:	b11a      	cbz	r2, d4d4 <_ZN7android22QualcommCameraHardware16deinitZslBuffersEv+0x3c>
    d4cc:	f104 0068 	add.w	r0, r4, #104	; 0x68
    d4d0:	f7ff fcee 	bl	ceb0 <_ZN7android2spINS_22QualcommCameraHardware8PmemPoolEE5clearEv>
    d4d4:	6d23      	ldr	r3, [r4, #80]	; 0x50
    d4d6:	b11b      	cbz	r3, d4e0 <_ZN7android22QualcommCameraHardware16deinitZslBuffersEv+0x48>
    d4d8:	f104 0050 	add.w	r0, r4, #80	; 0x50
    d4dc:	f7ff fce8 	bl	ceb0 <_ZN7android2spINS_22QualcommCameraHardware8PmemPoolEE5clearEv>
    d4e0:	6e60      	ldr	r0, [r4, #100]	; 0x64
    d4e2:	b118      	cbz	r0, d4ec <_ZN7android22QualcommCameraHardware16deinitZslBuffersEv+0x54>
    d4e4:	f104 0064 	add.w	r0, r4, #100	; 0x64
    d4e8:	f7ff fce2 	bl	ceb0 <_ZN7android2spINS_22QualcommCameraHardware8PmemPoolEE5clearEv>
    d4ec:	4906      	ldr	r1, [pc, #24]	; (d508 <_ZN7android22QualcommCameraHardware16deinitZslBuffersEv+0x70>)
    d4ee:	2006      	movs	r0, #6
    d4f0:	4a06      	ldr	r2, [pc, #24]	; (d50c <_ZN7android22QualcommCameraHardware16deinitZslBuffersEv+0x74>)
    d4f2:	4479      	add	r1, pc
    d4f4:	447a      	add	r2, pc
    d4f6:	f7fe ec44 	blx	bd80 <_ZN7android22QualcommCameraHardware22supportsSceneDetectionEv-0x684>
    d4fa:	2001      	movs	r0, #1
    d4fc:	bd10      	pop	{r4, pc}
    d4fe:	bf00      	nop
    d500:	cf2c      	ldmia	r7!, {r2, r3, r5}
    d502:	0000      	lsls	r0, r0, #0
    d504:	d26c      	bcs.n	d5e0 <_ZN7android22QualcommCameraHardware18receiveCameraStatsE13camstats_typeP29camera_preview_histogram_info+0x3c>
    d506:	0000      	lsls	r0, r0, #0
    d508:	ceda      	ldmia	r6!, {r1, r3, r4, r6, r7}
    d50a:	0000      	lsls	r0, r0, #0
    d50c:	d22d      	bcs.n	d56a <_ZN7android2spINS_8ISurfaceEEaSERKS2_+0x1e>
	...

0000d510 <_ZN7android2spINS_22QualcommCameraHardwareEED1Ev>:
    d510:	b510      	push	{r4, lr}
    d512:	6803      	ldr	r3, [r0, #0]
    d514:	4604      	mov	r4, r0
    d516:	b133      	cbz	r3, d526 <_ZN7android2spINS_22QualcommCameraHardwareEED1Ev+0x16>
    d518:	681a      	ldr	r2, [r3, #0]
    d51a:	4621      	mov	r1, r4
    d51c:	f852 0c0c 	ldr.w	r0, [r2, #-12]
    d520:	1818      	adds	r0, r3, r0
    d522:	f7fe ec88 	blx	be34 <_ZN7android22QualcommCameraHardware22supportsSceneDetectionEv-0x5d0>
    d526:	4620      	mov	r0, r4
    d528:	bd10      	pop	{r4, pc}
    d52a:	bf00      	nop

0000d52c <_ZN7android2spINS_22QualcommCameraHardware10AshmemPoolEEaSEPS2_>:
    d52c:	b570      	push	{r4, r5, r6, lr}
    d52e:	4604      	mov	r4, r0
    d530:	460d      	mov	r5, r1
    d532:	b119      	cbz	r1, d53c <_ZN7android2spINS_22QualcommCameraHardware10AshmemPoolEEaSEPS2_+0x10>
    d534:	4608      	mov	r0, r1
    d536:	4621      	mov	r1, r4
    d538:	f7fe ec76 	blx	be28 <_ZN7android22QualcommCameraHardware22supportsSceneDetectionEv-0x5dc>
    d53c:	6820      	ldr	r0, [r4, #0]
    d53e:	b110      	cbz	r0, d546 <_ZN7android2spINS_22QualcommCameraHardware10AshmemPoolEEaSEPS2_+0x1a>
    d540:	4621      	mov	r1, r4
    d542:	f7fe ec78 	blx	be34 <_ZN7android22QualcommCameraHardware22supportsSceneDetectionEv-0x5d0>
    d546:	6025      	str	r5, [r4, #0]
    d548:	4620      	mov	r0, r4
    d54a:	bd70      	pop	{r4, r5, r6, pc}

0000d54c <_ZN7android2spINS_8ISurfaceEEaSERKS2_>:
    d54c:	b570      	push	{r4, r5, r6, lr}
    d54e:	680d      	ldr	r5, [r1, #0]
    d550:	4604      	mov	r4, r0
    d552:	b135      	cbz	r5, d562 <_ZN7android2spINS_8ISurfaceEEaSERKS2_+0x16>
    d554:	682b      	ldr	r3, [r5, #0]
    d556:	4621      	mov	r1, r4
    d558:	f853 0c0c 	ldr.w	r0, [r3, #-12]
    d55c:	1828      	adds	r0, r5, r0
    d55e:	f7fe ec64 	blx	be28 <_ZN7android22QualcommCameraHardware22supportsSceneDetectionEv-0x5dc>
    d562:	6823      	ldr	r3, [r4, #0]
    d564:	b133      	cbz	r3, d574 <_ZN7android2spINS_8ISurfaceEEaSERKS2_+0x28>
    d566:	681a      	ldr	r2, [r3, #0]
    d568:	f852 1c0c 	ldr.w	r1, [r2, #-12]
    d56c:	1858      	adds	r0, r3, r1
    d56e:	4621      	mov	r1, r4
    d570:	f7fe ec60 	blx	be34 <_ZN7android22QualcommCameraHardware22supportsSceneDetectionEv-0x5d0>
    d574:	6025      	str	r5, [r4, #0]
    d576:	4620      	mov	r0, r4
    d578:	bd70      	pop	{r4, r5, r6, pc}
    d57a:	bf00      	nop

0000d57c <_ZN7android2spINS_22QualcommCameraHardware10AshmemPoolEED1Ev>:
    d57c:	b510      	push	{r4, lr}
    d57e:	4604      	mov	r4, r0
    d580:	6800      	ldr	r0, [r0, #0]
    d582:	b110      	cbz	r0, d58a <_ZN7android2spINS_22QualcommCameraHardware10AshmemPoolEED1Ev+0xe>
    d584:	4621      	mov	r1, r4
    d586:	f7fe ec56 	blx	be34 <_ZN7android22QualcommCameraHardware22supportsSceneDetectionEv-0x5d0>
    d58a:	4620      	mov	r0, r4
    d58c:	bd10      	pop	{r4, pc}
    d58e:	bf00      	nop

0000d590 <_ZN7android2spINS_22QualcommCameraHardware8PmemPoolEED1Ev>:
    d590:	b510      	push	{r4, lr}
    d592:	4604      	mov	r4, r0
    d594:	6800      	ldr	r0, [r0, #0]
    d596:	b110      	cbz	r0, d59e <_ZN7android2spINS_22QualcommCameraHardware8PmemPoolEED1Ev+0xe>
    d598:	4621      	mov	r1, r4
    d59a:	f7fe ec4c 	blx	be34 <_ZN7android22QualcommCameraHardware22supportsSceneDetectionEv-0x5d0>
    d59e:	4620      	mov	r0, r4
    d5a0:	bd10      	pop	{r4, pc}
    d5a2:	bf00      	nop

0000d5a4 <_ZN7android22QualcommCameraHardware18receiveCameraStatsE13camstats_typeP29camera_preview_histogram_info>:
    d5a4:	e92d 43f7 	stmdb	sp!, {r0, r1, r2, r4, r5, r6, r7, r8, r9, lr}
    d5a8:	f890 3030 	ldrb.w	r3, [r0, #48]	; 0x30
    d5ac:	4604      	mov	r4, r0
    d5ae:	4691      	mov	r9, r2
    d5b0:	b93b      	cbnz	r3, d5c2 <_ZN7android22QualcommCameraHardware18receiveCameraStatsE13camstats_typeP29camera_preview_histogram_info+0x1e>
    d5b2:	493e      	ldr	r1, [pc, #248]	; (d6ac <_ZN7android22QualcommCameraHardware18receiveCameraStatsE13camstats_typeP29camera_preview_histogram_info+0x108>)
    d5b4:	2006      	movs	r0, #6
    d5b6:	4a3e      	ldr	r2, [pc, #248]	; (d6b0 <_ZN7android22QualcommCameraHardware18receiveCameraStatsE13camstats_typeP29camera_preview_histogram_info+0x10c>)
    d5b8:	4479      	add	r1, pc
    d5ba:	447a      	add	r2, pc
    d5bc:	f7fe ebe0 	blx	bd80 <_ZN7android22QualcommCameraHardware22supportsSceneDetectionEv-0x684>
    d5c0:	e072      	b.n	d6a8 <_ZN7android22QualcommCameraHardware18receiveCameraStatsE13camstats_typeP29camera_preview_histogram_info+0x104>
    d5c2:	f500 75a8 	add.w	r5, r0, #336	; 0x150
    d5c6:	4628      	mov	r0, r5
    d5c8:	f7ff fb4a 	bl	cc60 <_ZN7android22QualcommCameraHardware10MMCameraDLD2Ev+0x4c>
    d5cc:	f8d4 03e4 	ldr.w	r0, [r4, #996]	; 0x3e4
    d5d0:	b1d8      	cbz	r0, d60a <_ZN7android22QualcommCameraHardware18receiveCameraStatsE13camstats_typeP29camera_preview_histogram_info+0x66>
    d5d2:	4628      	mov	r0, r5
    d5d4:	f504 75a6 	add.w	r5, r4, #332	; 0x14c
    d5d8:	f7fe ec1a 	blx	be10 <_ZN7android22QualcommCameraHardware22supportsSceneDetectionEv-0x5f4>
    d5dc:	4628      	mov	r0, r5
    d5de:	f7ff fb3f 	bl	cc60 <_ZN7android22QualcommCameraHardware10MMCameraDLD2Ev+0x4c>
    d5e2:	4628      	mov	r0, r5
    d5e4:	f104 05e4 	add.w	r5, r4, #228	; 0xe4
    d5e8:	f8d4 83e8 	ldr.w	r8, [r4, #1000]	; 0x3e8
    d5ec:	f8d4 63f0 	ldr.w	r6, [r4, #1008]	; 0x3f0
    d5f0:	f8d4 73f8 	ldr.w	r7, [r4, #1016]	; 0x3f8
    d5f4:	f7fe ec0c 	blx	be10 <_ZN7android22QualcommCameraHardware22supportsSceneDetectionEv-0x5f4>
    d5f8:	4628      	mov	r0, r5
    d5fa:	f7ff fb31 	bl	cc60 <_ZN7android22QualcommCameraHardware10MMCameraDLD2Ev+0x4c>
    d5fe:	f8d4 10d8 	ldr.w	r1, [r4, #216]	; 0xd8
    d602:	b111      	cbz	r1, d60a <_ZN7android22QualcommCameraHardware18receiveCameraStatsE13camstats_typeP29camera_preview_histogram_info+0x66>
    d604:	f894 20e0 	ldrb.w	r2, [r4, #224]	; 0xe0
    d608:	b91a      	cbnz	r2, d612 <_ZN7android22QualcommCameraHardware18receiveCameraStatsE13camstats_typeP29camera_preview_histogram_info+0x6e>
    d60a:	4628      	mov	r0, r5
    d60c:	f7fe ec00 	blx	be10 <_ZN7android22QualcommCameraHardware22supportsSceneDetectionEv-0x5f4>
    d610:	e04a      	b.n	d6a8 <_ZN7android22QualcommCameraHardware18receiveCameraStatsE13camstats_typeP29camera_preview_histogram_info+0x104>
    d612:	f8d4 00dc 	ldr.w	r0, [r4, #220]	; 0xdc
    d616:	2300      	movs	r3, #0
    d618:	2103      	movs	r1, #3
    d61a:	f884 30e0 	strb.w	r3, [r4, #224]	; 0xe0
    d61e:	3001      	adds	r0, #1
    d620:	f7fe ec0e 	blx	be40 <_ZN7android22QualcommCameraHardware22supportsSceneDetectionEv-0x5c4>
    d624:	6da2      	ldr	r2, [r4, #88]	; 0x58
    d626:	f8c4 10dc 	str.w	r1, [r4, #220]	; 0xdc
    d62a:	6993      	ldr	r3, [r2, #24]
    d62c:	6819      	ldr	r1, [r3, #0]
    d62e:	f851 0c0c 	ldr.w	r0, [r1, #-12]
    d632:	1818      	adds	r0, r3, r0
    d634:	f7fe fecc 	bl	c3d0 <_ZN7android22QualcommCameraHardware22supportsSceneDetectionEv-0x34>
    d638:	6da2      	ldr	r2, [r4, #88]	; 0x58
    d63a:	f8d4 30dc 	ldr.w	r3, [r4, #220]	; 0xdc
    d63e:	6891      	ldr	r1, [r2, #8]
    d640:	f8d9 2400 	ldr.w	r2, [r9, #1024]	; 0x400
    d644:	fb01 fc03 	mul.w	ip, r1, r3
    d648:	f840 200c 	str.w	r2, [r0, ip]
    d64c:	6da1      	ldr	r1, [r4, #88]	; 0x58
    d64e:	698b      	ldr	r3, [r1, #24]
    d650:	681a      	ldr	r2, [r3, #0]
    d652:	f852 0c0c 	ldr.w	r0, [r2, #-12]
    d656:	1818      	adds	r0, r3, r0
    d658:	f7fe feba 	bl	c3d0 <_ZN7android22QualcommCameraHardware22supportsSceneDetectionEv-0x34>
    d65c:	6da1      	ldr	r1, [r4, #88]	; 0x58
    d65e:	f8d4 30dc 	ldr.w	r3, [r4, #220]	; 0xdc
    d662:	688a      	ldr	r2, [r1, #8]
    d664:	fb02 f103 	mul.w	r1, r2, r3
    d668:	f44f 6280 	mov.w	r2, #1024	; 0x400
    d66c:	1d0b      	adds	r3, r1, #4
    d66e:	4649      	mov	r1, r9
    d670:	18c0      	adds	r0, r0, r3
    d672:	f7fe ebec 	blx	be4c <_ZN7android22QualcommCameraHardware22supportsSceneDetectionEv-0x5b8>
    d676:	4628      	mov	r0, r5
    d678:	f7fe ebca 	blx	be10 <_ZN7android22QualcommCameraHardware22supportsSceneDetectionEv-0x5f4>
    d67c:	b1a6      	cbz	r6, d6a8 <_ZN7android22QualcommCameraHardware18receiveCameraStatsE13camstats_typeP29camera_preview_histogram_info+0x104>
    d67e:	f418 7f00 	tst.w	r8, #512	; 0x200
    d682:	d011      	beq.n	d6a8 <_ZN7android22QualcommCameraHardware18receiveCameraStatsE13camstats_typeP29camera_preview_histogram_info+0x104>
    d684:	6da0      	ldr	r0, [r4, #88]	; 0x58
    d686:	ad01      	add	r5, sp, #4
    d688:	f8d4 10dc 	ldr.w	r1, [r4, #220]	; 0xdc
    d68c:	69c2      	ldr	r2, [r0, #28]
    d68e:	4628      	mov	r0, r5
    d690:	eb02 0181 	add.w	r1, r2, r1, lsl #2
    d694:	f7ff fbd6 	bl	ce44 <_ZN7android2spINS_7IMemoryEEC1INS_10MemoryBaseEEERKNS0_IT_EE>
    d698:	f44f 7000 	mov.w	r0, #512	; 0x200
    d69c:	4629      	mov	r1, r5
    d69e:	463a      	mov	r2, r7
    d6a0:	47b0      	blx	r6
    d6a2:	4628      	mov	r0, r5
    d6a4:	f7ff fde8 	bl	d278 <_ZN7android2spINS_7IMemoryEED1Ev>
    d6a8:	e8bd 83fe 	ldmia.w	sp!, {r1, r2, r3, r4, r5, r6, r7, r8, r9, pc}
    d6ac:	ce14      	ldmia	r6!, {r2, r4}
    d6ae:	0000      	lsls	r0, r0, #0
    d6b0:	d17a      	bne.n	d7a8 <_ZNK7android22QualcommCameraHardware7MemPool4dumpEiRKNS_6VectorINS_8String16EEE+0x8>
	...

0000d6b4 <_ZNK7android6VectorIP9msm_frameE7do_copyEPvPKvj>:
    d6b4:	009b      	lsls	r3, r3, #2
    d6b6:	4608      	mov	r0, r1
    d6b8:	b510      	push	{r4, lr}
    d6ba:	4611      	mov	r1, r2
    d6bc:	461a      	mov	r2, r3
    d6be:	f7fe ebc6 	blx	be4c <_ZN7android22QualcommCameraHardware22supportsSceneDetectionEv-0x5b8>
    d6c2:	bd10      	pop	{r4, pc}
    d6c4:	e92d 47f0 	stmdb	sp!, {r4, r5, r6, r7, r8, r9, sl, lr}
    d6c8:	4c1f      	ldr	r4, [pc, #124]	; (d748 <_ZNK7android6VectorIP9msm_frameE7do_copyEPvPKvj+0x94>)
    d6ca:	468a      	mov	sl, r1
    d6cc:	491f      	ldr	r1, [pc, #124]	; (d74c <_ZNK7android6VectorIP9msm_frameE7do_copyEPvPKvj+0x98>)
    d6ce:	447c      	add	r4, pc
    d6d0:	4605      	mov	r5, r0
    d6d2:	b08a      	sub	sp, #40	; 0x28
    d6d4:	4690      	mov	r8, r2
    d6d6:	5860      	ldr	r0, [r4, r1]
    d6d8:	6803      	ldr	r3, [r0, #0]
    d6da:	4628      	mov	r0, r5
    d6dc:	9309      	str	r3, [sp, #36]	; 0x24
    d6de:	f7fe eb26 	blx	bd2c <_ZN7android22QualcommCameraHardware22supportsSceneDetectionEv-0x6d8>
    d6e2:	f1b8 0f00 	cmp.w	r8, #0
    d6e6:	dd0c      	ble.n	d702 <_ZNK7android6VectorIP9msm_frameE7do_copyEPvPKvj+0x4e>
    d6e8:	4a19      	ldr	r2, [pc, #100]	; (d750 <_ZNK7android6VectorIP9msm_frameE7do_copyEPvPKvj+0x9c>)
    d6ea:	ae01      	add	r6, sp, #4
    d6ec:	2120      	movs	r1, #32
    d6ee:	f9ba 3000 	ldrsh.w	r3, [sl]
    d6f2:	447a      	add	r2, pc
    d6f4:	4630      	mov	r0, r6
    d6f6:	f7fe ebb0 	blx	be58 <_ZN7android22QualcommCameraHardware22supportsSceneDetectionEv-0x5ac>
    d6fa:	4628      	mov	r0, r5
    d6fc:	4631      	mov	r1, r6
    d6fe:	f7fe ebb2 	blx	be64 <_ZN7android22QualcommCameraHardware22supportsSceneDetectionEv-0x5a0>
    d702:	4f14      	ldr	r7, [pc, #80]	; (d754 <_ZNK7android6VectorIP9msm_frameE7do_copyEPvPKvj+0xa0>)
    d704:	2601      	movs	r6, #1
    d706:	f10d 0904 	add.w	r9, sp, #4
    d70a:	447f      	add	r7, pc
    d70c:	e00b      	b.n	d726 <_ZNK7android6VectorIP9msm_frameE7do_copyEPvPKvj+0x72>
    d70e:	f93a 3016 	ldrsh.w	r3, [sl, r6, lsl #1]
    d712:	2120      	movs	r1, #32
    d714:	463a      	mov	r2, r7
    d716:	4648      	mov	r0, r9
    d718:	f7fe eb9e 	blx	be58 <_ZN7android22QualcommCameraHardware22supportsSceneDetectionEv-0x5ac>
    d71c:	4628      	mov	r0, r5
    d71e:	4649      	mov	r1, r9
    d720:	3601      	adds	r6, #1
    d722:	f7fe eba0 	blx	be64 <_ZN7android22QualcommCameraHardware22supportsSceneDetectionEv-0x5a0>
    d726:	4546      	cmp	r6, r8
    d728:	dbf1      	blt.n	d70e <_ZNK7android6VectorIP9msm_frameE7do_copyEPvPKvj+0x5a>
    d72a:	f8df c020 	ldr.w	ip, [pc, #32]	; d74c <_ZNK7android6VectorIP9msm_frameE7do_copyEPvPKvj+0x98>
    d72e:	4628      	mov	r0, r5
    d730:	9a09      	ldr	r2, [sp, #36]	; 0x24
    d732:	f854 100c 	ldr.w	r1, [r4, ip]
    d736:	680b      	ldr	r3, [r1, #0]
    d738:	429a      	cmp	r2, r3
    d73a:	d001      	beq.n	d740 <_ZNK7android6VectorIP9msm_frameE7do_copyEPvPKvj+0x8c>
    d73c:	f7fe eb3e 	blx	bdbc <_ZN7android22QualcommCameraHardware22supportsSceneDetectionEv-0x648>
    d740:	b00a      	add	sp, #40	; 0x28
    d742:	e8bd 87f0 	ldmia.w	sp!, {r4, r5, r6, r7, r8, r9, sl, pc}
    d746:	bf00      	nop
    d748:	242a      	movs	r4, #42	; 0x2a
    d74a:	0001      	lsls	r1, r0, #0
    d74c:	fd6c ffff 	stc2l	15, cr15, [ip, #-1020]!	; 0xfffffc04
    d750:	d073      	beq.n	d83a <_ZNK7android22QualcommCameraHardware7MemPool4dumpEiRKNS_6VectorINS_8String16EEE+0x9a>
    d752:	0000      	lsls	r0, r0, #0
    d754:	d05e      	beq.n	d814 <_ZNK7android22QualcommCameraHardware7MemPool4dumpEiRKNS_6VectorINS_8String16EEE+0x74>
    d756:	0000      	lsls	r0, r0, #0
    d758:	e92d 41f0 	stmdb	sp!, {r4, r5, r6, r7, r8, lr}
    d75c:	4690      	mov	r8, r2
    d75e:	4604      	mov	r4, r0
    d760:	460d      	mov	r5, r1
    d762:	f7fe eae4 	blx	bd2c <_ZN7android22QualcommCameraHardware22supportsSceneDetectionEv-0x6d8>
    d766:	f1b8 0f00 	cmp.w	r8, #0
    d76a:	dd03      	ble.n	d774 <_ZNK7android6VectorIP9msm_frameE7do_copyEPvPKvj+0xc0>
    d76c:	4620      	mov	r0, r4
    d76e:	6829      	ldr	r1, [r5, #0]
    d770:	f7fe eb78 	blx	be64 <_ZN7android22QualcommCameraHardware22supportsSceneDetectionEv-0x5a0>
    d774:	4f09      	ldr	r7, [pc, #36]	; (d79c <_ZNK7android6VectorIP9msm_frameE7do_copyEPvPKvj+0xe8>)
    d776:	2601      	movs	r6, #1
    d778:	447f      	add	r7, pc
    d77a:	e009      	b.n	d790 <_ZNK7android6VectorIP9msm_frameE7do_copyEPvPKvj+0xdc>
    d77c:	4639      	mov	r1, r7
    d77e:	4620      	mov	r0, r4
    d780:	f7fe eb70 	blx	be64 <_ZN7android22QualcommCameraHardware22supportsSceneDetectionEv-0x5a0>
    d784:	f855 1036 	ldr.w	r1, [r5, r6, lsl #3]
    d788:	4620      	mov	r0, r4
    d78a:	3601      	adds	r6, #1
    d78c:	f7fe eb6a 	blx	be64 <_ZN7android22QualcommCameraHardware22supportsSceneDetectionEv-0x5a0>
    d790:	4546      	cmp	r6, r8
    d792:	dbf3      	blt.n	d77c <_ZNK7android6VectorIP9msm_frameE7do_copyEPvPKvj+0xc8>
    d794:	4620      	mov	r0, r4
    d796:	e8bd 81f0 	ldmia.w	sp!, {r4, r5, r6, r7, r8, pc}
    d79a:	bf00      	nop
    d79c:	cff4      	ldmia	r7!, {r2, r4, r5, r6, r7}
	...

0000d7a0 <_ZNK7android22QualcommCameraHardware7MemPool4dumpEiRKNS_6VectorINS_8String16EEE>:
    d7a0:	e92d 47f0 	stmdb	sp!, {r4, r5, r6, r7, r8, r9, sl, lr}
    d7a4:	4d38      	ldr	r5, [pc, #224]	; (d888 <_ZNK7android22QualcommCameraHardware7MemPool4dumpEiRKNS_6VectorINS_8String16EEE+0xe8>)
    d7a6:	4688      	mov	r8, r1
    d7a8:	4938      	ldr	r1, [pc, #224]	; (d88c <_ZNK7android22QualcommCameraHardware7MemPool4dumpEiRKNS_6VectorINS_8String16EEE+0xec>)
    d7aa:	447d      	add	r5, pc
    d7ac:	4604      	mov	r4, r0
    d7ae:	b0c6      	sub	sp, #280	; 0x118
    d7b0:	5868      	ldr	r0, [r5, r1]
    d7b2:	af04      	add	r7, sp, #16
    d7b4:	ae05      	add	r6, sp, #20
    d7b6:	6803      	ldr	r3, [r0, #0]
    d7b8:	4638      	mov	r0, r7
    d7ba:	9345      	str	r3, [sp, #276]	; 0x114
    d7bc:	f7fe eab6 	blx	bd2c <_ZN7android22QualcommCameraHardware22supportsSceneDetectionEv-0x6d8>
    d7c0:	4a33      	ldr	r2, [pc, #204]	; (d890 <_ZNK7android22QualcommCameraHardware7MemPool4dumpEiRKNS_6VectorINS_8String16EEE+0xf0>)
    d7c2:	21ff      	movs	r1, #255	; 0xff
    d7c4:	4630      	mov	r0, r6
    d7c6:	447a      	add	r2, pc
    d7c8:	f7fe eb46 	blx	be58 <_ZN7android22QualcommCameraHardware22supportsSceneDetectionEv-0x5ac>
    d7cc:	4638      	mov	r0, r7
    d7ce:	4631      	mov	r1, r6
    d7d0:	f7fe eb48 	blx	be64 <_ZN7android22QualcommCameraHardware22supportsSceneDetectionEv-0x5a0>
    d7d4:	6a23      	ldr	r3, [r4, #32]
    d7d6:	b14b      	cbz	r3, d7ec <_ZNK7android22QualcommCameraHardware7MemPool4dumpEiRKNS_6VectorINS_8String16EEE+0x4c>
    d7d8:	4a2e      	ldr	r2, [pc, #184]	; (d894 <_ZNK7android22QualcommCameraHardware7MemPool4dumpEiRKNS_6VectorINS_8String16EEE+0xf4>)
    d7da:	21ff      	movs	r1, #255	; 0xff
    d7dc:	4630      	mov	r0, r6
    d7de:	447a      	add	r2, pc
    d7e0:	f7fe eb3a 	blx	be58 <_ZN7android22QualcommCameraHardware22supportsSceneDetectionEv-0x5ac>
    d7e4:	4638      	mov	r0, r7
    d7e6:	4631      	mov	r1, r6
    d7e8:	f7fe eb3c 	blx	be64 <_ZN7android22QualcommCameraHardware22supportsSceneDetectionEv-0x5a0>
    d7ec:	69a0      	ldr	r0, [r4, #24]
    d7ee:	b308      	cbz	r0, d834 <_ZNK7android22QualcommCameraHardware7MemPool4dumpEiRKNS_6VectorINS_8String16EEE+0x94>
    d7f0:	6802      	ldr	r2, [r0, #0]
    d7f2:	68d7      	ldr	r7, [r2, #12]
    d7f4:	47b8      	blx	r7
    d7f6:	4607      	mov	r7, r0
    d7f8:	69a0      	ldr	r0, [r4, #24]
    d7fa:	6806      	ldr	r6, [r0, #0]
    d7fc:	6931      	ldr	r1, [r6, #16]
    d7fe:	ae05      	add	r6, sp, #20
    d800:	4788      	blx	r1
    d802:	4682      	mov	sl, r0
    d804:	69a0      	ldr	r0, [r4, #24]
    d806:	6803      	ldr	r3, [r0, #0]
    d808:	695a      	ldr	r2, [r3, #20]
    d80a:	4790      	blx	r2
    d80c:	4681      	mov	r9, r0
    d80e:	69a0      	ldr	r0, [r4, #24]
    d810:	f7fe eb2e 	blx	be70 <_ZN7android22QualcommCameraHardware22supportsSceneDetectionEv-0x594>
    d814:	4a20      	ldr	r2, [pc, #128]	; (d898 <_ZNK7android22QualcommCameraHardware7MemPool4dumpEiRKNS_6VectorINS_8String16EEE+0xf8>)
    d816:	21ff      	movs	r1, #255	; 0xff
    d818:	463b      	mov	r3, r7
    d81a:	447a      	add	r2, pc
    d81c:	f8cd a000 	str.w	sl, [sp]
    d820:	f8cd 9004 	str.w	r9, [sp, #4]
    d824:	9002      	str	r0, [sp, #8]
    d826:	4630      	mov	r0, r6
    d828:	f7fe eb16 	blx	be58 <_ZN7android22QualcommCameraHardware22supportsSceneDetectionEv-0x5ac>
    d82c:	a804      	add	r0, sp, #16
    d82e:	4631      	mov	r1, r6
    d830:	f7fe eb18 	blx	be64 <_ZN7android22QualcommCameraHardware22supportsSceneDetectionEv-0x5a0>
    d834:	6923      	ldr	r3, [r4, #16]
    d836:	ae05      	add	r6, sp, #20
    d838:	4a18      	ldr	r2, [pc, #96]	; (d89c <_ZNK7android22QualcommCameraHardware7MemPool4dumpEiRKNS_6VectorINS_8String16EEE+0xfc>)
    d83a:	4630      	mov	r0, r6
    d83c:	9300      	str	r3, [sp, #0]
    d83e:	447a      	add	r2, pc
    d840:	6961      	ldr	r1, [r4, #20]
    d842:	9101      	str	r1, [sp, #4]
    d844:	21ff      	movs	r1, #255	; 0xff
    d846:	68a3      	ldr	r3, [r4, #8]
    d848:	ac04      	add	r4, sp, #16
    d84a:	f7fe eb06 	blx	be58 <_ZN7android22QualcommCameraHardware22supportsSceneDetectionEv-0x5ac>
    d84e:	4631      	mov	r1, r6
    d850:	4620      	mov	r0, r4
    d852:	f7fe eb08 	blx	be64 <_ZN7android22QualcommCameraHardware22supportsSceneDetectionEv-0x5a0>
    d856:	6821      	ldr	r1, [r4, #0]
    d858:	f851 0c0c 	ldr.w	r0, [r1, #-12]
    d85c:	1e42      	subs	r2, r0, #1
    d85e:	4640      	mov	r0, r8
    d860:	f7fe eb0c 	blx	be7c <_ZN7android22QualcommCameraHardware22supportsSceneDetectionEv-0x588>
    d864:	4620      	mov	r0, r4
    d866:	f7fe ea68 	blx	bd38 <_ZN7android22QualcommCameraHardware22supportsSceneDetectionEv-0x6cc>
    d86a:	f8df c020 	ldr.w	ip, [pc, #32]	; d88c <_ZNK7android22QualcommCameraHardware7MemPool4dumpEiRKNS_6VectorINS_8String16EEE+0xec>
    d86e:	9945      	ldr	r1, [sp, #276]	; 0x114
    d870:	2000      	movs	r0, #0
    d872:	f855 200c 	ldr.w	r2, [r5, ip]
    d876:	6813      	ldr	r3, [r2, #0]
    d878:	4299      	cmp	r1, r3
    d87a:	d001      	beq.n	d880 <_ZNK7android22QualcommCameraHardware7MemPool4dumpEiRKNS_6VectorINS_8String16EEE+0xe0>
    d87c:	f7fe ea9e 	blx	bdbc <_ZN7android22QualcommCameraHardware22supportsSceneDetectionEv-0x648>
    d880:	b046      	add	sp, #280	; 0x118
    d882:	e8bd 87f0 	ldmia.w	sp!, {r4, r5, r6, r7, r8, r9, sl, pc}
    d886:	bf00      	nop
    d888:	234e      	movs	r3, #78	; 0x4e
    d88a:	0001      	lsls	r1, r0, #0
    d88c:	fd6c ffff 	stc2l	15, cr15, [ip, #-1020]!	; 0xfffffc04
    d890:	cfa8      	ldmia	r7!, {r3, r5, r7}
    d892:	0000      	lsls	r0, r0, #0
    d894:	cfba      	ldmia	r7!, {r1, r3, r4, r5, r7}
    d896:	0000      	lsls	r0, r0, #0
    d898:	cf92      	ldmia	r7!, {r1, r4, r7}
    d89a:	0000      	lsls	r0, r0, #0
    d89c:	cf9e      	ldmia	r7!, {r1, r2, r3, r4, r7}
	...

0000d8a0 <_ZN7android22QualcommCameraHardware7MemPoolD1Ev>:
    d8a0:	4b15      	ldr	r3, [pc, #84]	; (d8f8 <_ZN7android22QualcommCameraHardware7MemPoolD1Ev+0x58>)
    d8a2:	4916      	ldr	r1, [pc, #88]	; (d8fc <_ZN7android22QualcommCameraHardware7MemPoolD1Ev+0x5c>)
    d8a4:	447b      	add	r3, pc
    d8a6:	b570      	push	{r4, r5, r6, lr}
    d8a8:	4604      	mov	r4, r0
    d8aa:	5858      	ldr	r0, [r3, r1]
    d8ac:	6963      	ldr	r3, [r4, #20]
    d8ae:	f110 0208 	adds.w	r2, r0, #8
    d8b2:	6022      	str	r2, [r4, #0]
    d8b4:	2b00      	cmp	r3, #0
    d8b6:	dd11      	ble.n	d8dc <_ZN7android22QualcommCameraHardware7MemPoolD1Ev+0x3c>
    d8b8:	69e3      	ldr	r3, [r4, #28]
    d8ba:	b17b      	cbz	r3, d8dc <_ZN7android22QualcommCameraHardware7MemPoolD1Ev+0x3c>
    d8bc:	f853 5c04 	ldr.w	r5, [r3, #-4]
    d8c0:	eb03 0585 	add.w	r5, r3, r5, lsl #2
    d8c4:	69e3      	ldr	r3, [r4, #28]
    d8c6:	4628      	mov	r0, r5
    d8c8:	3d04      	subs	r5, #4
    d8ca:	4298      	cmp	r0, r3
    d8cc:	d003      	beq.n	d8d6 <_ZN7android22QualcommCameraHardware7MemPoolD1Ev+0x36>
    d8ce:	4628      	mov	r0, r5
    d8d0:	f7ff fb16 	bl	cf00 <_ZN7android2spINS_10MemoryBaseEED1Ev>
    d8d4:	e7f6      	b.n	d8c4 <_ZN7android22QualcommCameraHardware7MemPoolD1Ev+0x24>
    d8d6:	3808      	subs	r0, #8
    d8d8:	f7fe ead6 	blx	be88 <_ZN7android22QualcommCameraHardware22supportsSceneDetectionEv-0x57c>
    d8dc:	f104 0518 	add.w	r5, r4, #24
    d8e0:	4628      	mov	r0, r5
    d8e2:	f7ff fb1b 	bl	cf1c <_ZN7android2spINS_14MemoryHeapBaseEE5clearEv>
    d8e6:	4628      	mov	r0, r5
    d8e8:	f7ff fb26 	bl	cf38 <_ZN7android2spINS_14MemoryHeapBaseEED1Ev>
    d8ec:	4620      	mov	r0, r4
    d8ee:	f7fe ea12 	blx	bd14 <_ZN7android22QualcommCameraHardware22supportsSceneDetectionEv-0x6f0>
    d8f2:	4620      	mov	r0, r4
    d8f4:	bd70      	pop	{r4, r5, r6, pc}
    d8f6:	bf00      	nop
    d8f8:	2254      	movs	r2, #84	; 0x54
    d8fa:	0001      	lsls	r1, r0, #0
    d8fc:	fd84 ffff 	stc2	15, cr15, [r4, #1020]	; 0x3fc

0000d900 <_ZN7android22QualcommCameraHardware7MemPoolD0Ev>:
    d900:	b510      	push	{r4, lr}
    d902:	4604      	mov	r4, r0
    d904:	f7ff ffcc 	bl	d8a0 <_ZN7android22QualcommCameraHardware7MemPoolD1Ev>
    d908:	4620      	mov	r0, r4
    d90a:	f7fe ea0a 	blx	bd20 <_ZN7android22QualcommCameraHardware22supportsSceneDetectionEv-0x6e4>
    d90e:	4620      	mov	r0, r4
    d910:	bd10      	pop	{r4, pc}
    d912:	bf00      	nop

0000d914 <_ZN7android22QualcommCameraHardware7MemPoolD2Ev>:
    d914:	4b15      	ldr	r3, [pc, #84]	; (d96c <_ZN7android22QualcommCameraHardware7MemPoolD2Ev+0x58>)
    d916:	4916      	ldr	r1, [pc, #88]	; (d970 <_ZN7android22QualcommCameraHardware7MemPoolD2Ev+0x5c>)
    d918:	447b      	add	r3, pc
    d91a:	b570      	push	{r4, r5, r6, lr}
    d91c:	4604      	mov	r4, r0
    d91e:	5858      	ldr	r0, [r3, r1]
    d920:	6963      	ldr	r3, [r4, #20]
    d922:	f110 0208 	adds.w	r2, r0, #8
    d926:	6022      	str	r2, [r4, #0]
    d928:	2b00      	cmp	r3, #0
    d92a:	dd11      	ble.n	d950 <_ZN7android22QualcommCameraHardware7MemPoolD2Ev+0x3c>
    d92c:	69e3      	ldr	r3, [r4, #28]
    d92e:	b17b      	cbz	r3, d950 <_ZN7android22QualcommCameraHardware7MemPoolD2Ev+0x3c>
    d930:	f853 5c04 	ldr.w	r5, [r3, #-4]
    d934:	eb03 0585 	add.w	r5, r3, r5, lsl #2
    d938:	69e3      	ldr	r3, [r4, #28]
    d93a:	4628      	mov	r0, r5
    d93c:	3d04      	subs	r5, #4
    d93e:	4298      	cmp	r0, r3
    d940:	d003      	beq.n	d94a <_ZN7android22QualcommCameraHardware7MemPoolD2Ev+0x36>
    d942:	4628      	mov	r0, r5
    d944:	f7ff fadc 	bl	cf00 <_ZN7android2spINS_10MemoryBaseEED1Ev>
    d948:	e7f6      	b.n	d938 <_ZN7android22QualcommCameraHardware7MemPoolD2Ev+0x24>
    d94a:	3808      	subs	r0, #8
    d94c:	f7fe ea9c 	blx	be88 <_ZN7android22QualcommCameraHardware22supportsSceneDetectionEv-0x57c>
    d950:	f104 0518 	add.w	r5, r4, #24
    d954:	4628      	mov	r0, r5
    d956:	f7ff fae1 	bl	cf1c <_ZN7android2spINS_14MemoryHeapBaseEE5clearEv>
    d95a:	4628      	mov	r0, r5
    d95c:	f7ff faec 	bl	cf38 <_ZN7android2spINS_14MemoryHeapBaseEED1Ev>
    d960:	4620      	mov	r0, r4
    d962:	f7fe e9d8 	blx	bd14 <_ZN7android22QualcommCameraHardware22supportsSceneDetectionEv-0x6f0>
    d966:	4620      	mov	r0, r4
    d968:	bd70      	pop	{r4, r5, r6, pc}
    d96a:	bf00      	nop
    d96c:	21e0      	movs	r1, #224	; 0xe0
    d96e:	0001      	lsls	r1, r0, #0
    d970:	fd84 ffff 	stc2	15, cr15, [r4, #1020]	; 0x3fc
    d974:	4b06      	ldr	r3, [pc, #24]	; (d990 <_ZN7android22QualcommCameraHardware7MemPoolD2Ev+0x7c>)
    d976:	4907      	ldr	r1, [pc, #28]	; (d994 <_ZN7android22QualcommCameraHardware7MemPoolD2Ev+0x80>)
    d978:	447b      	add	r3, pc
    d97a:	b510      	push	{r4, lr}
    d97c:	4604      	mov	r4, r0
    d97e:	5858      	ldr	r0, [r3, r1]
    d980:	f110 0208 	adds.w	r2, r0, #8
    d984:	4620      	mov	r0, r4
    d986:	6022      	str	r2, [r4, #0]
    d988:	f7ff ffc4 	bl	d914 <_ZN7android22QualcommCameraHardware7MemPoolD2Ev>
    d98c:	4620      	mov	r0, r4
    d98e:	bd10      	pop	{r4, pc}
    d990:	2180      	movs	r1, #128	; 0x80
    d992:	0001      	lsls	r1, r0, #0
    d994:	fd88 ffff 	stc2	15, cr15, [r8, #1020]	; 0x3fc
    d998:	b510      	push	{r4, lr}
    d99a:	4604      	mov	r4, r0
    d99c:	f7ff ffea 	bl	d974 <_ZN7android22QualcommCameraHardware7MemPoolD2Ev+0x60>
    d9a0:	4620      	mov	r0, r4
    d9a2:	f7fe e9be 	blx	bd20 <_ZN7android22QualcommCameraHardware22supportsSceneDetectionEv-0x6e4>
    d9a6:	4620      	mov	r0, r4
    d9a8:	bd10      	pop	{r4, pc}
    d9aa:	bf00      	nop
    d9ac:	e92d 41f0 	stmdb	sp!, {r4, r5, r6, r7, r8, lr}
    d9b0:	460c      	mov	r4, r1
    d9b2:	4617      	mov	r7, r2
    d9b4:	b172      	cbz	r2, d9d4 <_ZN7android22QualcommCameraHardware7MemPoolD2Ev+0xc0>
    d9b6:	4605      	mov	r5, r0
    d9b8:	2600      	movs	r6, #0
    d9ba:	e009      	b.n	d9d0 <_ZN7android22QualcommCameraHardware7MemPoolD2Ev+0xbc>
    d9bc:	f855 0b08 	ldr.w	r0, [r5], #8
    d9c0:	4639      	mov	r1, r7
    d9c2:	f7fe ea68 	blx	be94 <_ZN7android22QualcommCameraHardware22supportsSceneDetectionEv-0x570>
    d9c6:	b910      	cbnz	r0, d9ce <_ZN7android22QualcommCameraHardware7MemPoolD2Ev+0xba>
    d9c8:	f855 0c04 	ldr.w	r0, [r5, #-4]
    d9cc:	e004      	b.n	d9d8 <_ZN7android22QualcommCameraHardware7MemPoolD2Ev+0xc4>
    d9ce:	3601      	adds	r6, #1
    d9d0:	42a6      	cmp	r6, r4
    d9d2:	dbf3      	blt.n	d9bc <_ZN7android22QualcommCameraHardware7MemPoolD2Ev+0xa8>
    d9d4:	f04f 30ff 	mov.w	r0, #4294967295
    d9d8:	e8bd 81f0 	ldmia.w	sp!, {r4, r5, r6, r7, r8, pc}

0000d9dc <_ZN7android12compare_typeINS_16key_value_pair_tINS_7String8ES2_EEEEiRKT_S6_>:
    d9dc:	b570      	push	{r4, r5, r6, lr}
    d9de:	680c      	ldr	r4, [r1, #0]
    d9e0:	6805      	ldr	r5, [r0, #0]
    d9e2:	4620      	mov	r0, r4
    d9e4:	4629      	mov	r1, r5
    d9e6:	f7fe ea56 	blx	be94 <_ZN7android22QualcommCameraHardware22supportsSceneDetectionEv-0x570>
    d9ea:	4621      	mov	r1, r4
    d9ec:	4606      	mov	r6, r0
    d9ee:	4628      	mov	r0, r5
    d9f0:	f7fe ea50 	blx	be94 <_ZN7android22QualcommCameraHardware22supportsSceneDetectionEv-0x570>
    d9f4:	0fc0      	lsrs	r0, r0, #31
    d9f6:	ebc0 70d6 	rsb	r0, r0, r6, lsr #31
    d9fa:	bd70      	pop	{r4, r5, r6, pc}

0000d9fc <_ZNK7android12SortedVectorINS_16key_value_pair_tINS_7String8ES2_EEE10do_compareEPKvS6_>:
    d9fc:	b510      	push	{r4, lr}
    d9fe:	4608      	mov	r0, r1
    da00:	4611      	mov	r1, r2
    da02:	f7ff ffeb 	bl	d9dc <_ZN7android12compare_typeINS_16key_value_pair_tINS_7String8ES2_EEEEiRKT_S6_>
    da06:	bd10      	pop	{r4, pc}

0000da08 <_ZN7android22QualcommCameraHardware18filterPictureSizesEv>:
    da08:	e92d 41f0 	stmdb	sp!, {r4, r5, r6, r7, r8, lr}
    da0c:	4d4c      	ldr	r5, [pc, #304]	; (db40 <_ZN7android22QualcommCameraHardware18filterPictureSizesEv+0x138>)
    da0e:	494d      	ldr	r1, [pc, #308]	; (db44 <_ZN7android22QualcommCameraHardware18filterPictureSizesEv+0x13c>)
    da10:	4606      	mov	r6, r0
    da12:	447d      	add	r5, pc
    da14:	b09e      	sub	sp, #120	; 0x78
    da16:	5868      	ldr	r0, [r5, r1]
    da18:	6803      	ldr	r3, [r0, #0]
    da1a:	931d      	str	r3, [sp, #116]	; 0x74
    da1c:	4b4a      	ldr	r3, [pc, #296]	; (db48 <_ZN7android22QualcommCameraHardware18filterPictureSizesEv+0x140>)
    da1e:	447b      	add	r3, pc
    da20:	f8d3 20c8 	ldr.w	r2, [r3, #200]	; 0xc8
    da24:	2a00      	cmp	r2, #0
    da26:	d07d      	beq.n	db24 <_ZN7android22QualcommCameraHardware18filterPictureSizesEv+0x11c>
    da28:	6858      	ldr	r0, [r3, #4]
    da2a:	ac06      	add	r4, sp, #24
    da2c:	689a      	ldr	r2, [r3, #8]
    da2e:	4621      	mov	r1, r4
    da30:	9005      	str	r0, [sp, #20]
    da32:	9204      	str	r2, [sp, #16]
    da34:	4845      	ldr	r0, [pc, #276]	; (db4c <_ZN7android22QualcommCameraHardware18filterPictureSizesEv+0x144>)
    da36:	4a46      	ldr	r2, [pc, #280]	; (db50 <_ZN7android22QualcommCameraHardware18filterPictureSizesEv+0x148>)
    da38:	4478      	add	r0, pc
    da3a:	447a      	add	r2, pc
    da3c:	f7fe e9ac 	blx	bd98 <_ZN7android22QualcommCameraHardware22supportsSceneDetectionEv-0x66c>
    da40:	4944      	ldr	r1, [pc, #272]	; (db54 <_ZN7android22QualcommCameraHardware18filterPictureSizesEv+0x14c>)
    da42:	4620      	mov	r0, r4
    da44:	4479      	add	r1, pc
    da46:	f7fe ea26 	blx	be94 <_ZN7android22QualcommCameraHardware22supportsSceneDetectionEv-0x570>
    da4a:	b9f0      	cbnz	r0, da8a <_ZN7android22QualcommCameraHardware18filterPictureSizesEv+0x82>
    da4c:	f8df 8108 	ldr.w	r8, [pc, #264]	; db58 <_ZN7android22QualcommCameraHardware18filterPictureSizesEv+0x150>
    da50:	f855 3008 	ldr.w	r3, [r5, r8]
    da54:	681b      	ldr	r3, [r3, #0]
    da56:	b18b      	cbz	r3, da7c <_ZN7android22QualcommCameraHardware18filterPictureSizesEv+0x74>
    da58:	f8d6 1180 	ldr.w	r1, [r6, #384]	; 0x180
    da5c:	b171      	cbz	r1, da7c <_ZN7android22QualcommCameraHardware18filterPictureSizesEv+0x74>
    da5e:	a805      	add	r0, sp, #20
    da60:	a904      	add	r1, sp, #16
    da62:	4798      	blx	r3
    da64:	b188      	cbz	r0, da8a <_ZN7android22QualcommCameraHardware18filterPictureSizesEv+0x82>
    da66:	9c04      	ldr	r4, [sp, #16]
    da68:	2006      	movs	r0, #6
    da6a:	493c      	ldr	r1, [pc, #240]	; (db5c <_ZN7android22QualcommCameraHardware18filterPictureSizesEv+0x154>)
    da6c:	4a3c      	ldr	r2, [pc, #240]	; (db60 <_ZN7android22QualcommCameraHardware18filterPictureSizesEv+0x158>)
    da6e:	4479      	add	r1, pc
    da70:	9b05      	ldr	r3, [sp, #20]
    da72:	447a      	add	r2, pc
    da74:	9400      	str	r4, [sp, #0]
    da76:	f7fe e984 	blx	bd80 <_ZN7android22QualcommCameraHardware22supportsSceneDetectionEv-0x684>
    da7a:	e006      	b.n	da8a <_ZN7android22QualcommCameraHardware18filterPictureSizesEv+0x82>
    da7c:	4939      	ldr	r1, [pc, #228]	; (db64 <_ZN7android22QualcommCameraHardware18filterPictureSizesEv+0x15c>)
    da7e:	2006      	movs	r0, #6
    da80:	4a39      	ldr	r2, [pc, #228]	; (db68 <_ZN7android22QualcommCameraHardware18filterPictureSizesEv+0x160>)
    da82:	4479      	add	r1, pc
    da84:	447a      	add	r2, pc
    da86:	f7fe e97c 	blx	bd80 <_ZN7android22QualcommCameraHardware22supportsSceneDetectionEv-0x684>
    da8a:	f8df c0e0 	ldr.w	ip, [pc, #224]	; db6c <_ZN7android22QualcommCameraHardware18filterPictureSizesEv+0x164>
    da8e:	2300      	movs	r3, #0
    da90:	9904      	ldr	r1, [sp, #16]
    da92:	461c      	mov	r4, r3
    da94:	44fc      	add	ip, pc
    da96:	f8dc 80c8 	ldr.w	r8, [ip, #200]	; 0xc8
    da9a:	f8dc 20cc 	ldr.w	r2, [ip, #204]	; 0xcc
    da9e:	f8dd c014 	ldr.w	ip, [sp, #20]
    daa2:	e014      	b.n	dace <_ZN7android22QualcommCameraHardware18filterPictureSizesEv+0xc6>
    daa4:	58d7      	ldr	r7, [r2, r3]
    daa6:	4567      	cmp	r7, ip
    daa8:	dc0f      	bgt.n	daca <_ZN7android22QualcommCameraHardware18filterPictureSizesEv+0xc2>
    daaa:	18d0      	adds	r0, r2, r3
    daac:	6840      	ldr	r0, [r0, #4]
    daae:	4288      	cmp	r0, r1
    dab0:	dc0b      	bgt.n	daca <_ZN7android22QualcommCameraHardware18filterPictureSizesEv+0xc2>
    dab2:	492f      	ldr	r1, [pc, #188]	; (db70 <_ZN7android22QualcommCameraHardware18filterPictureSizesEv+0x168>)
    dab4:	4623      	mov	r3, r4
    dab6:	4a2f      	ldr	r2, [pc, #188]	; (db74 <_ZN7android22QualcommCameraHardware18filterPictureSizesEv+0x16c>)
    dab8:	9002      	str	r0, [sp, #8]
    daba:	4479      	add	r1, pc
    dabc:	447a      	add	r2, pc
    dabe:	2006      	movs	r0, #6
    dac0:	9700      	str	r7, [sp, #0]
    dac2:	9401      	str	r4, [sp, #4]
    dac4:	f7fe e95c 	blx	bd80 <_ZN7android22QualcommCameraHardware22supportsSceneDetectionEv-0x684>
    dac8:	e003      	b.n	dad2 <_ZN7android22QualcommCameraHardware18filterPictureSizesEv+0xca>
    daca:	3401      	adds	r4, #1
    dacc:	3308      	adds	r3, #8
    dace:	4544      	cmp	r4, r8
    dad0:	d3e8      	bcc.n	daa4 <_ZN7android22QualcommCameraHardware18filterPictureSizesEv+0x9c>
    dad2:	f8d6 2454 	ldr.w	r2, [r6, #1108]	; 0x454
    dad6:	b142      	cbz	r2, daea <_ZN7android22QualcommCameraHardware18filterPictureSizesEv+0xe2>
    dad8:	4b27      	ldr	r3, [pc, #156]	; (db78 <_ZN7android22QualcommCameraHardware18filterPictureSizesEv+0x170>)
    dada:	2207      	movs	r2, #7
    dadc:	4827      	ldr	r0, [pc, #156]	; (db7c <_ZN7android22QualcommCameraHardware18filterPictureSizesEv+0x174>)
    dade:	447b      	add	r3, pc
    dae0:	4478      	add	r0, pc
    dae2:	1d01      	adds	r1, r0, #4
    dae4:	f8c3 10d0 	str.w	r1, [r3, #208]	; 0xd0
    dae8:	e00b      	b.n	db02 <_ZN7android22QualcommCameraHardware18filterPictureSizesEv+0xfa>
    daea:	f896 33e2 	ldrb.w	r3, [r6, #994]	; 0x3e2
    daee:	b15b      	cbz	r3, db08 <_ZN7android22QualcommCameraHardware18filterPictureSizesEv+0x100>
    daf0:	4b23      	ldr	r3, [pc, #140]	; (db80 <_ZN7android22QualcommCameraHardware18filterPictureSizesEv+0x178>)
    daf2:	4924      	ldr	r1, [pc, #144]	; (db84 <_ZN7android22QualcommCameraHardware18filterPictureSizesEv+0x17c>)
    daf4:	447b      	add	r3, pc
    daf6:	4479      	add	r1, pc
    daf8:	f111 023c 	adds.w	r2, r1, #60	; 0x3c
    dafc:	f8c3 20d0 	str.w	r2, [r3, #208]	; 0xd0
    db00:	2201      	movs	r2, #1
    db02:	f8c3 20d4 	str.w	r2, [r3, #212]	; 0xd4
    db06:	e00d      	b.n	db24 <_ZN7android22QualcommCameraHardware18filterPictureSizesEv+0x11c>
    db08:	f8df e07c 	ldr.w	lr, [pc, #124]	; db88 <_ZN7android22QualcommCameraHardware18filterPictureSizesEv+0x180>
    db0c:	44fe      	add	lr, pc
    db0e:	f8de 20cc 	ldr.w	r2, [lr, #204]	; 0xcc
    db12:	f8de 00c8 	ldr.w	r0, [lr, #200]	; 0xc8
    db16:	eb02 03c4 	add.w	r3, r2, r4, lsl #3
    db1a:	f8ce 30d0 	str.w	r3, [lr, #208]	; 0xd0
    db1e:	1b04      	subs	r4, r0, r4
    db20:	f8ce 40d4 	str.w	r4, [lr, #212]	; 0xd4
    db24:	f8df c01c 	ldr.w	ip, [pc, #28]	; db44 <_ZN7android22QualcommCameraHardware18filterPictureSizesEv+0x13c>
    db28:	991d      	ldr	r1, [sp, #116]	; 0x74
    db2a:	f855 300c 	ldr.w	r3, [r5, ip]
    db2e:	6818      	ldr	r0, [r3, #0]
    db30:	4281      	cmp	r1, r0
    db32:	d001      	beq.n	db38 <_ZN7android22QualcommCameraHardware18filterPictureSizesEv+0x130>
    db34:	f7fe e942 	blx	bdbc <_ZN7android22QualcommCameraHardware22supportsSceneDetectionEv-0x648>
    db38:	b01e      	add	sp, #120	; 0x78
    db3a:	e8bd 81f0 	ldmia.w	sp!, {r4, r5, r6, r7, r8, pc}
    db3e:	bf00      	nop
    db40:	20e6      	movs	r0, #230	; 0xe6
    db42:	0001      	lsls	r1, r0, #0
    db44:	fd6c ffff 	stc2l	15, cr15, [ip, #-1020]!	; 0xfffffc04
    db48:	240e      	movs	r4, #14
    db4a:	0001      	lsls	r1, r0, #0
    db4c:	cddd      	ldmia	r5!, {r0, r2, r3, r4, r6, r7}
    db4e:	0000      	lsls	r0, r0, #0
    db50:	cdf6      	ldmia	r5!, {r1, r2, r4, r5, r6, r7}
    db52:	0000      	lsls	r0, r0, #0
    db54:	cdf2      	ldmia	r5!, {r1, r4, r5, r6, r7}
    db56:	0000      	lsls	r0, r0, #0
    db58:	fd64 ffff 	stc2l	15, cr15, [r4, #-1020]!	; 0xfffffc04
    db5c:	c95e      	ldmia	r1!, {r1, r2, r3, r4, r6}
    db5e:	0000      	lsls	r0, r0, #0
    db60:	cdc9      	ldmia	r5!, {r0, r3, r6, r7}
    db62:	0000      	lsls	r0, r0, #0
    db64:	c94a      	ldmia	r1!, {r1, r3, r6}
    db66:	0000      	lsls	r0, r0, #0
    db68:	c95f      	ldmia	r1!, {r0, r1, r2, r3, r4, r6}
    db6a:	0000      	lsls	r0, r0, #0
    db6c:	2398      	movs	r3, #152	; 0x98
    db6e:	0001      	lsls	r1, r0, #0
    db70:	c912      	ldmia	r1!, {r1, r4}
    db72:	0000      	lsls	r0, r0, #0
    db74:	cdb0      	ldmia	r5!, {r4, r5, r7}
    db76:	0000      	lsls	r0, r0, #0
    db78:	234e      	movs	r3, #78	; 0x4e
    db7a:	0001      	lsls	r1, r0, #0
    db7c:	225c      	movs	r2, #92	; 0x5c
    db7e:	0001      	lsls	r1, r0, #0
    db80:	2338      	movs	r3, #56	; 0x38
    db82:	0001      	lsls	r1, r0, #0
    db84:	2246      	movs	r2, #70	; 0x46
    db86:	0001      	lsls	r1, r0, #0
    db88:	2320      	movs	r3, #32
    db8a:	0001      	lsls	r1, r0, #0
    db8c:	4b0e      	ldr	r3, [pc, #56]	; (dbc8 <_ZN7android22QualcommCameraHardware18filterPictureSizesEv+0x1c0>)
    db8e:	4a0f      	ldr	r2, [pc, #60]	; (dbcc <_ZN7android22QualcommCameraHardware18filterPictureSizesEv+0x1c4>)
    db90:	447b      	add	r3, pc
    db92:	b513      	push	{r0, r1, r4, lr}
    db94:	4604      	mov	r4, r0
    db96:	5898      	ldr	r0, [r3, r2]
    db98:	2200      	movs	r2, #0
    db9a:	6843      	ldr	r3, [r0, #4]
    db9c:	4620      	mov	r0, r4
    db9e:	4798      	blx	r3
    dba0:	b908      	cbnz	r0, dba6 <_ZN7android22QualcommCameraHardware18filterPictureSizesEv+0x19e>
    dba2:	3001      	adds	r0, #1
    dba4:	e00e      	b.n	dbc4 <_ZN7android22QualcommCameraHardware18filterPictureSizesEv+0x1bc>
    dba6:	f7fe e97c 	blx	bea0 <_ZN7android22QualcommCameraHardware22supportsSceneDetectionEv-0x564>
    dbaa:	6800      	ldr	r0, [r0, #0]
    dbac:	f7fe e97e 	blx	beac <_ZN7android22QualcommCameraHardware22supportsSceneDetectionEv-0x558>
    dbb0:	4907      	ldr	r1, [pc, #28]	; (dbd0 <_ZN7android22QualcommCameraHardware18filterPictureSizesEv+0x1c8>)
    dbb2:	4a08      	ldr	r2, [pc, #32]	; (dbd4 <_ZN7android22QualcommCameraHardware18filterPictureSizesEv+0x1cc>)
    dbb4:	4623      	mov	r3, r4
    dbb6:	4479      	add	r1, pc
    dbb8:	447a      	add	r2, pc
    dbba:	9000      	str	r0, [sp, #0]
    dbbc:	2006      	movs	r0, #6
    dbbe:	f7fe e8e0 	blx	bd80 <_ZN7android22QualcommCameraHardware22supportsSceneDetectionEv-0x684>
    dbc2:	2000      	movs	r0, #0
    dbc4:	bd1c      	pop	{r2, r3, r4, pc}
    dbc6:	bf00      	nop
    dbc8:	1f68      	subs	r0, r5, #5
    dbca:	0001      	lsls	r1, r0, #0
    dbcc:	fd68 ffff 	stc2l	15, cr15, [r8, #-1020]!	; 0xfffffc04
    dbd0:	c816      	ldmia	r0!, {r1, r2, r4}
    dbd2:	0000      	lsls	r0, r0, #0
    dbd4:	cd04      	ldmia	r5!, {r2}
    dbd6:	0000      	lsls	r0, r0, #0
    dbd8:	b530      	push	{r4, r5, lr}
    dbda:	b089      	sub	sp, #36	; 0x24
    dbdc:	9d0f      	ldr	r5, [sp, #60]	; 0x3c
    dbde:	9004      	str	r0, [sp, #16]
    dbe0:	980e      	ldr	r0, [sp, #56]	; 0x38
    dbe2:	9500      	str	r5, [sp, #0]
    dbe4:	9d0c      	ldr	r5, [sp, #48]	; 0x30
    dbe6:	f89d 1044 	ldrb.w	r1, [sp, #68]	; 0x44
    dbea:	f89d 4040 	ldrb.w	r4, [sp, #64]	; 0x40
    dbee:	9501      	str	r5, [sp, #4]
    dbf0:	9d0d      	ldr	r5, [sp, #52]	; 0x34
    dbf2:	9002      	str	r0, [sp, #8]
    dbf4:	2900      	cmp	r1, #0
    dbf6:	bf14      	ite	ne
    dbf8:	200b      	movne	r0, #11
    dbfa:	200c      	moveq	r0, #12
    dbfc:	4669      	mov	r1, sp
    dbfe:	9305      	str	r3, [sp, #20]
    dc00:	9503      	str	r5, [sp, #12]
    dc02:	9206      	str	r2, [sp, #24]
    dc04:	f88d 401c 	strb.w	r4, [sp, #28]
    dc08:	f7ff ffc0 	bl	db8c <_ZN7android22QualcommCameraHardware18filterPictureSizesEv+0x184>
    dc0c:	2001      	movs	r0, #1
    dc0e:	b009      	add	sp, #36	; 0x24
    dc10:	bd30      	pop	{r4, r5, pc}
    dc12:	bf00      	nop

0000dc14 <_ZN7android22QualcommCameraHardware8PmemPoolD1Ev>:
    dc14:	4b3e      	ldr	r3, [pc, #248]	; (dd10 <_ZN7android22QualcommCameraHardware8PmemPoolD1Ev+0xfc>)
    dc16:	f8df c0fc 	ldr.w	ip, [pc, #252]	; dd14 <_ZN7android22QualcommCameraHardware8PmemPoolD1Ev+0x100>
    dc1a:	447b      	add	r3, pc
    dc1c:	e92d 4ff0 	stmdb	sp!, {r4, r5, r6, r7, r8, r9, sl, fp, lr}
    dc20:	f853 100c 	ldr.w	r1, [r3, ip]
    dc24:	4604      	mov	r4, r0
    dc26:	4d3c      	ldr	r5, [pc, #240]	; (dd18 <_ZN7android22QualcommCameraHardware8PmemPoolD1Ev+0x104>)
    dc28:	f111 0208 	adds.w	r2, r1, #8
    dc2c:	6002      	str	r2, [r0, #0]
    dc2e:	6a00      	ldr	r0, [r0, #32]
    dc30:	b089      	sub	sp, #36	; 0x24
    dc32:	493a      	ldr	r1, [pc, #232]	; (dd1c <_ZN7android22QualcommCameraHardware8PmemPoolD1Ev+0x108>)
    dc34:	447d      	add	r5, pc
    dc36:	4a3a      	ldr	r2, [pc, #232]	; (dd20 <_ZN7android22QualcommCameraHardware8PmemPoolD1Ev+0x10c>)
    dc38:	f115 035c 	adds.w	r3, r5, #92	; 0x5c
    dc3c:	9000      	str	r0, [sp, #0]
    dc3e:	4479      	add	r1, pc
    dc40:	447a      	add	r2, pc
    dc42:	2004      	movs	r0, #4
    dc44:	f7fe e89c 	blx	bd80 <_ZN7android22QualcommCameraHardware22supportsSceneDetectionEv-0x684>
    dc48:	69a3      	ldr	r3, [r4, #24]
    dc4a:	2b00      	cmp	r3, #0
    dc4c:	d041      	beq.n	dcd2 <_ZN7android22QualcommCameraHardware8PmemPoolD1Ev+0xbe>
    dc4e:	6a25      	ldr	r5, [r4, #32]
    dc50:	4834      	ldr	r0, [pc, #208]	; (dd24 <_ZN7android22QualcommCameraHardware8PmemPoolD1Ev+0x110>)
    dc52:	4629      	mov	r1, r5
    dc54:	4478      	add	r0, pc
    dc56:	f7fe e91e 	blx	be94 <_ZN7android22QualcommCameraHardware22supportsSceneDetectionEv-0x570>
    dc5a:	2800      	cmp	r0, #0
    dc5c:	d039      	beq.n	dcd2 <_ZN7android22QualcommCameraHardware8PmemPoolD1Ev+0xbe>
    dc5e:	4832      	ldr	r0, [pc, #200]	; (dd28 <_ZN7android22QualcommCameraHardware8PmemPoolD1Ev+0x114>)
    dc60:	4629      	mov	r1, r5
    dc62:	6926      	ldr	r6, [r4, #16]
    dc64:	2500      	movs	r5, #0
    dc66:	4478      	add	r0, pc
    dc68:	462f      	mov	r7, r5
    dc6a:	f7fe e914 	blx	be94 <_ZN7android22QualcommCameraHardware22supportsSceneDetectionEv-0x570>
    dc6e:	2800      	cmp	r0, #0
    dc70:	bf08      	it	eq
    dc72:	2606      	moveq	r6, #6
    dc74:	e02b      	b.n	dcce <_ZN7android22QualcommCameraHardware8PmemPoolD1Ev+0xba>
    dc76:	69a0      	ldr	r0, [r4, #24]
    dc78:	f8d4 b008 	ldr.w	fp, [r4, #8]
    dc7c:	f8d4 a014 	ldr.w	sl, [r4, #20]
    dc80:	6801      	ldr	r1, [r0, #0]
    dc82:	f8d4 902c 	ldr.w	r9, [r4, #44]	; 0x2c
    dc86:	f8d4 8030 	ldr.w	r8, [r4, #48]	; 0x30
    dc8a:	688a      	ldr	r2, [r1, #8]
    dc8c:	4790      	blx	r2
    dc8e:	69a1      	ldr	r1, [r4, #24]
    dc90:	68e3      	ldr	r3, [r4, #12]
    dc92:	fb03 f305 	mul.w	r3, r3, r5
    dc96:	4602      	mov	r2, r0
    dc98:	6808      	ldr	r0, [r1, #0]
    dc9a:	f850 0c0c 	ldr.w	r0, [r0, #-12]
    dc9e:	9206      	str	r2, [sp, #24]
    dca0:	1808      	adds	r0, r1, r0
    dca2:	9307      	str	r3, [sp, #28]
    dca4:	f7fe fb94 	bl	c3d0 <_ZN7android22QualcommCameraHardware22supportsSceneDetectionEv-0x34>
    dca8:	68e2      	ldr	r2, [r4, #12]
    dcaa:	9b06      	ldr	r3, [sp, #24]
    dcac:	9907      	ldr	r1, [sp, #28]
    dcae:	9704      	str	r7, [sp, #16]
    dcb0:	9300      	str	r3, [sp, #0]
    dcb2:	6aa3      	ldr	r3, [r4, #40]	; 0x28
    dcb4:	9101      	str	r1, [sp, #4]
    dcb6:	4651      	mov	r1, sl
    dcb8:	9705      	str	r7, [sp, #20]
    dcba:	9303      	str	r3, [sp, #12]
    dcbc:	4643      	mov	r3, r8
    dcbe:	fb02 0005 	mla	r0, r2, r5, r0
    dcc2:	464a      	mov	r2, r9
    dcc4:	3501      	adds	r5, #1
    dcc6:	9002      	str	r0, [sp, #8]
    dcc8:	4658      	mov	r0, fp
    dcca:	f7ff ff85 	bl	dbd8 <_ZN7android22QualcommCameraHardware18filterPictureSizesEv+0x1d0>
    dcce:	42b5      	cmp	r5, r6
    dcd0:	dbd1      	blt.n	dc76 <_ZN7android22QualcommCameraHardware8PmemPoolD1Ev+0x62>
    dcd2:	6c60      	ldr	r0, [r4, #68]	; 0x44
    dcd4:	f104 0544 	add.w	r5, r4, #68	; 0x44
    dcd8:	b120      	cbz	r0, dce4 <_ZN7android22QualcommCameraHardware8PmemPoolD1Ev+0xd0>
    dcda:	4629      	mov	r1, r5
    dcdc:	f7fe e8aa 	blx	be34 <_ZN7android22QualcommCameraHardware22supportsSceneDetectionEv-0x5d0>
    dce0:	2000      	movs	r0, #0
    dce2:	6460      	str	r0, [r4, #68]	; 0x44
    dce4:	6a20      	ldr	r0, [r4, #32]
    dce6:	4b11      	ldr	r3, [pc, #68]	; (dd2c <_ZN7android22QualcommCameraHardware8PmemPoolD1Ev+0x118>)
    dce8:	4911      	ldr	r1, [pc, #68]	; (dd30 <_ZN7android22QualcommCameraHardware8PmemPoolD1Ev+0x11c>)
    dcea:	4a12      	ldr	r2, [pc, #72]	; (dd34 <_ZN7android22QualcommCameraHardware8PmemPoolD1Ev+0x120>)
    dcec:	447b      	add	r3, pc
    dcee:	4479      	add	r1, pc
    dcf0:	335c      	adds	r3, #92	; 0x5c
    dcf2:	447a      	add	r2, pc
    dcf4:	9000      	str	r0, [sp, #0]
    dcf6:	2004      	movs	r0, #4
    dcf8:	f7fe e842 	blx	bd80 <_ZN7android22QualcommCameraHardware22supportsSceneDetectionEv-0x684>
    dcfc:	4628      	mov	r0, r5
    dcfe:	f7ff f995 	bl	d02c <_ZN7android2spINS_22QualcommCameraHardware10MMCameraDLEED1Ev>
    dd02:	4620      	mov	r0, r4
    dd04:	f7ff fe06 	bl	d914 <_ZN7android22QualcommCameraHardware7MemPoolD2Ev>
    dd08:	4620      	mov	r0, r4
    dd0a:	b009      	add	sp, #36	; 0x24
    dd0c:	e8bd 8ff0 	ldmia.w	sp!, {r4, r5, r6, r7, r8, r9, sl, fp, pc}
    dd10:	1ede      	subs	r6, r3, #3
    dd12:	0001      	lsls	r1, r0, #0
    dd14:	fd8c ffff 	stc2	15, cr15, [ip, #1020]	; 0x3fc
    dd18:	c4e4      	stmia	r4!, {r2, r5, r6, r7}
    dd1a:	0000      	lsls	r0, r0, #0
    dd1c:	c78e      	stmia	r7!, {r1, r2, r3, r7}
    dd1e:	0000      	lsls	r0, r0, #0
    dd20:	cc9f      	ldmia	r4!, {r0, r1, r2, r3, r4, r7}
    dd22:	0000      	lsls	r0, r0, #0
    dd24:	cc94      	ldmia	r4!, {r2, r4, r7}
    dd26:	0000      	lsls	r0, r0, #0
    dd28:	cc8b      	ldmia	r4!, {r0, r1, r3, r7}
    dd2a:	0000      	lsls	r0, r0, #0
    dd2c:	c42c      	stmia	r4!, {r2, r3, r5}
    dd2e:	0000      	lsls	r0, r0, #0
    dd30:	c6de      	stmia	r6!, {r1, r2, r3, r4, r6, r7}
    dd32:	0000      	lsls	r0, r0, #0
    dd34:	cc07      	ldmia	r4!, {r0, r1, r2}
	...

0000dd38 <_ZN7android22QualcommCameraHardware8PmemPoolD0Ev>:
    dd38:	b510      	push	{r4, lr}
    dd3a:	4604      	mov	r4, r0
    dd3c:	f7ff ff6a 	bl	dc14 <_ZN7android22QualcommCameraHardware8PmemPoolD1Ev>
    dd40:	4620      	mov	r0, r4
    dd42:	f7fd efee 	blx	bd20 <_ZN7android22QualcommCameraHardware22supportsSceneDetectionEv-0x6e4>
    dd46:	4620      	mov	r0, r4
    dd48:	bd10      	pop	{r4, pc}
    dd4a:	bf00      	nop

0000dd4c <_ZN7android22QualcommCameraHardware8PmemPoolD2Ev>:
    dd4c:	4b3e      	ldr	r3, [pc, #248]	; (de48 <_ZN7android22QualcommCameraHardware8PmemPoolD2Ev+0xfc>)
    dd4e:	f8df c0fc 	ldr.w	ip, [pc, #252]	; de4c <_ZN7android22QualcommCameraHardware8PmemPoolD2Ev+0x100>
    dd52:	447b      	add	r3, pc
    dd54:	e92d 4ff0 	stmdb	sp!, {r4, r5, r6, r7, r8, r9, sl, fp, lr}
    dd58:	f853 100c 	ldr.w	r1, [r3, ip]
    dd5c:	4604      	mov	r4, r0
    dd5e:	4d3c      	ldr	r5, [pc, #240]	; (de50 <_ZN7android22QualcommCameraHardware8PmemPoolD2Ev+0x104>)
    dd60:	f111 0208 	adds.w	r2, r1, #8
    dd64:	6002      	str	r2, [r0, #0]
    dd66:	6a00      	ldr	r0, [r0, #32]
    dd68:	b089      	sub	sp, #36	; 0x24
    dd6a:	493a      	ldr	r1, [pc, #232]	; (de54 <_ZN7android22QualcommCameraHardware8PmemPoolD2Ev+0x108>)
    dd6c:	447d      	add	r5, pc
    dd6e:	4a3a      	ldr	r2, [pc, #232]	; (de58 <_ZN7android22QualcommCameraHardware8PmemPoolD2Ev+0x10c>)
    dd70:	f115 035c 	adds.w	r3, r5, #92	; 0x5c
    dd74:	9000      	str	r0, [sp, #0]
    dd76:	4479      	add	r1, pc
    dd78:	447a      	add	r2, pc
    dd7a:	2004      	movs	r0, #4
    dd7c:	f7fe e800 	blx	bd80 <_ZN7android22QualcommCameraHardware22supportsSceneDetectionEv-0x684>
    dd80:	69a3      	ldr	r3, [r4, #24]
    dd82:	2b00      	cmp	r3, #0
    dd84:	d041      	beq.n	de0a <_ZN7android22QualcommCameraHardware8PmemPoolD2Ev+0xbe>
    dd86:	6a25      	ldr	r5, [r4, #32]
    dd88:	4834      	ldr	r0, [pc, #208]	; (de5c <_ZN7android22QualcommCameraHardware8PmemPoolD2Ev+0x110>)
    dd8a:	4629      	mov	r1, r5
    dd8c:	4478      	add	r0, pc
    dd8e:	f7fe e882 	blx	be94 <_ZN7android22QualcommCameraHardware22supportsSceneDetectionEv-0x570>
    dd92:	2800      	cmp	r0, #0
    dd94:	d039      	beq.n	de0a <_ZN7android22QualcommCameraHardware8PmemPoolD2Ev+0xbe>
    dd96:	4832      	ldr	r0, [pc, #200]	; (de60 <_ZN7android22QualcommCameraHardware8PmemPoolD2Ev+0x114>)
    dd98:	4629      	mov	r1, r5
    dd9a:	6926      	ldr	r6, [r4, #16]
    dd9c:	2500      	movs	r5, #0
    dd9e:	4478      	add	r0, pc
    dda0:	462f      	mov	r7, r5
    dda2:	f7fe e878 	blx	be94 <_ZN7android22QualcommCameraHardware22supportsSceneDetectionEv-0x570>
    dda6:	2800      	cmp	r0, #0
    dda8:	bf08      	it	eq
    ddaa:	2606      	moveq	r6, #6
    ddac:	e02b      	b.n	de06 <_ZN7android22QualcommCameraHardware8PmemPoolD2Ev+0xba>
    ddae:	69a0      	ldr	r0, [r4, #24]
    ddb0:	f8d4 b008 	ldr.w	fp, [r4, #8]
    ddb4:	f8d4 a014 	ldr.w	sl, [r4, #20]
    ddb8:	6801      	ldr	r1, [r0, #0]
    ddba:	f8d4 902c 	ldr.w	r9, [r4, #44]	; 0x2c
    ddbe:	f8d4 8030 	ldr.w	r8, [r4, #48]	; 0x30
    ddc2:	688a      	ldr	r2, [r1, #8]
    ddc4:	4790      	blx	r2
    ddc6:	69a1      	ldr	r1, [r4, #24]
    ddc8:	68e3      	ldr	r3, [r4, #12]
    ddca:	fb03 f305 	mul.w	r3, r3, r5
    ddce:	4602      	mov	r2, r0
    ddd0:	6808      	ldr	r0, [r1, #0]
    ddd2:	f850 0c0c 	ldr.w	r0, [r0, #-12]
    ddd6:	9206      	str	r2, [sp, #24]
    ddd8:	1808      	adds	r0, r1, r0
    ddda:	9307      	str	r3, [sp, #28]
    dddc:	f7fe faf8 	bl	c3d0 <_ZN7android22QualcommCameraHardware22supportsSceneDetectionEv-0x34>
    dde0:	68e2      	ldr	r2, [r4, #12]
    dde2:	9b06      	ldr	r3, [sp, #24]
    dde4:	9907      	ldr	r1, [sp, #28]
    dde6:	9704      	str	r7, [sp, #16]
    dde8:	9300      	str	r3, [sp, #0]
    ddea:	6aa3      	ldr	r3, [r4, #40]	; 0x28
    ddec:	9101      	str	r1, [sp, #4]
    ddee:	4651      	mov	r1, sl
    ddf0:	9705      	str	r7, [sp, #20]
    ddf2:	9303      	str	r3, [sp, #12]
    ddf4:	4643      	mov	r3, r8
    ddf6:	fb02 0005 	mla	r0, r2, r5, r0
    ddfa:	464a      	mov	r2, r9
    ddfc:	3501      	adds	r5, #1
    ddfe:	9002      	str	r0, [sp, #8]
    de00:	4658      	mov	r0, fp
    de02:	f7ff fee9 	bl	dbd8 <_ZN7android22QualcommCameraHardware18filterPictureSizesEv+0x1d0>
    de06:	42b5      	cmp	r5, r6
    de08:	dbd1      	blt.n	ddae <_ZN7android22QualcommCameraHardware8PmemPoolD2Ev+0x62>
    de0a:	6c60      	ldr	r0, [r4, #68]	; 0x44
    de0c:	f104 0544 	add.w	r5, r4, #68	; 0x44
    de10:	b120      	cbz	r0, de1c <_ZN7android22QualcommCameraHardware8PmemPoolD2Ev+0xd0>
    de12:	4629      	mov	r1, r5
    de14:	f7fe e80e 	blx	be34 <_ZN7android22QualcommCameraHardware22supportsSceneDetectionEv-0x5d0>
    de18:	2000      	movs	r0, #0
    de1a:	6460      	str	r0, [r4, #68]	; 0x44
    de1c:	6a20      	ldr	r0, [r4, #32]
    de1e:	4b11      	ldr	r3, [pc, #68]	; (de64 <_ZN7android22QualcommCameraHardware8PmemPoolD2Ev+0x118>)
    de20:	4911      	ldr	r1, [pc, #68]	; (de68 <_ZN7android22QualcommCameraHardware8PmemPoolD2Ev+0x11c>)
    de22:	4a12      	ldr	r2, [pc, #72]	; (de6c <_ZN7android22QualcommCameraHardware8PmemPoolD2Ev+0x120>)
    de24:	447b      	add	r3, pc
    de26:	4479      	add	r1, pc
    de28:	335c      	adds	r3, #92	; 0x5c
    de2a:	447a      	add	r2, pc
    de2c:	9000      	str	r0, [sp, #0]
    de2e:	2004      	movs	r0, #4
    de30:	f7fd efa6 	blx	bd80 <_ZN7android22QualcommCameraHardware22supportsSceneDetectionEv-0x684>
    de34:	4628      	mov	r0, r5
    de36:	f7ff f8f9 	bl	d02c <_ZN7android2spINS_22QualcommCameraHardware10MMCameraDLEED1Ev>
    de3a:	4620      	mov	r0, r4
    de3c:	f7ff fd6a 	bl	d914 <_ZN7android22QualcommCameraHardware7MemPoolD2Ev>
    de40:	4620      	mov	r0, r4
    de42:	b009      	add	sp, #36	; 0x24
    de44:	e8bd 8ff0 	ldmia.w	sp!, {r4, r5, r6, r7, r8, r9, sl, fp, pc}
    de48:	1da6      	adds	r6, r4, #6
    de4a:	0001      	lsls	r1, r0, #0
    de4c:	fd8c ffff 	stc2	15, cr15, [ip, #1020]	; 0x3fc
    de50:	c3ac      	stmia	r3!, {r2, r3, r5, r7}
    de52:	0000      	lsls	r0, r0, #0
    de54:	c656      	stmia	r6!, {r1, r2, r4, r6}
    de56:	0000      	lsls	r0, r0, #0
    de58:	cb67      	ldmia	r3!, {r0, r1, r2, r5, r6}
    de5a:	0000      	lsls	r0, r0, #0
    de5c:	cb5c      	ldmia	r3!, {r2, r3, r4, r6}
    de5e:	0000      	lsls	r0, r0, #0
    de60:	cb53      	ldmia	r3!, {r0, r1, r4, r6}
    de62:	0000      	lsls	r0, r0, #0
    de64:	c2f4      	stmia	r2!, {r2, r4, r5, r6, r7}
    de66:	0000      	lsls	r0, r0, #0
    de68:	c5a6      	stmia	r5!, {r1, r2, r5, r7}
    de6a:	0000      	lsls	r0, r0, #0
    de6c:	cacf      	ldmia	r2!, {r0, r1, r2, r3, r6, r7}
	...

0000de70 <_ZN7android22QualcommCameraHardware23register_record_buffersEb>:
    de70:	e92d 4ff0 	stmdb	sp!, {r4, r5, r6, r7, r8, r9, sl, fp, lr}
    de74:	4604      	mov	r4, r0
    de76:	4831      	ldr	r0, [pc, #196]	; (df3c <_ZN7android22QualcommCameraHardware23register_record_buffersEb+0xcc>)
    de78:	460d      	mov	r5, r1
    de7a:	4a31      	ldr	r2, [pc, #196]	; (df40 <_ZN7android22QualcommCameraHardware23register_record_buffersEb+0xd0>)
    de7c:	b08d      	sub	sp, #52	; 0x34
    de7e:	4931      	ldr	r1, [pc, #196]	; (df44 <_ZN7android22QualcommCameraHardware23register_record_buffersEb+0xd4>)
    de80:	4478      	add	r0, pc
    de82:	4f31      	ldr	r7, [pc, #196]	; (df48 <_ZN7android22QualcommCameraHardware23register_record_buffersEb+0xd8>)
    de84:	f110 0368 	adds.w	r3, r0, #104	; 0x68
    de88:	4479      	add	r1, pc
    de8a:	447a      	add	r2, pc
    de8c:	2004      	movs	r0, #4
    de8e:	2600      	movs	r6, #0
    de90:	f04f 0910 	mov.w	r9, #16
    de94:	9500      	str	r5, [sp, #0]
    de96:	447f      	add	r7, pc
    de98:	f7fd ef72 	blx	bd80 <_ZN7android22QualcommCameraHardware22supportsSceneDetectionEv-0x684>
    de9c:	f04f 0b0e 	mov.w	fp, #14
    dea0:	eb0d 0309 	add.w	r3, sp, r9
    dea4:	46b2      	mov	sl, r6
    dea6:	f04f 0801 	mov.w	r8, #1
    deaa:	9303      	str	r3, [sp, #12]
    deac:	e03e      	b.n	df2c <_ZN7android22QualcommCameraHardware23register_record_buffersEb+0xbc>
    deae:	6c62      	ldr	r2, [r4, #68]	; 0x44
    deb0:	f8cd b010 	str.w	fp, [sp, #16]
    deb4:	6990      	ldr	r0, [r2, #24]
    deb6:	6803      	ldr	r3, [r0, #0]
    deb8:	6899      	ldr	r1, [r3, #8]
    deba:	4788      	blx	r1
    debc:	6c61      	ldr	r1, [r4, #68]	; 0x44
    debe:	9005      	str	r0, [sp, #20]
    dec0:	68ca      	ldr	r2, [r1, #12]
    dec2:	fb02 f306 	mul.w	r3, r2, r6
    dec6:	9307      	str	r3, [sp, #28]
    dec8:	6888      	ldr	r0, [r1, #8]
    deca:	9008      	str	r0, [sp, #32]
    decc:	698b      	ldr	r3, [r1, #24]
    dece:	681a      	ldr	r2, [r3, #0]
    ded0:	f852 0c0c 	ldr.w	r0, [r2, #-12]
    ded4:	1818      	adds	r0, r3, r0
    ded6:	f7fe fa7b 	bl	c3d0 <_ZN7android22QualcommCameraHardware22supportsSceneDetectionEv-0x34>
    deda:	6c61      	ldr	r1, [r4, #68]	; 0x44
    dedc:	f8d4 23d8 	ldr.w	r2, [r4, #984]	; 0x3d8
    dee0:	68cb      	ldr	r3, [r1, #12]
    dee2:	f8cd a024 	str.w	sl, [sp, #36]	; 0x24
    dee6:	fb03 0006 	mla	r0, r3, r6, r0
    deea:	9006      	str	r0, [sp, #24]
    deec:	69d1      	ldr	r1, [r2, #28]
    deee:	910a      	str	r1, [sp, #40]	; 0x28
    def0:	b19d      	cbz	r5, df1a <_ZN7android22QualcommCameraHardware23register_record_buffersEb+0xaa>
    def2:	f897 00d8 	ldrb.w	r0, [r7, #216]	; 0xd8
    def6:	2e02      	cmp	r6, #2
    def8:	bfcc      	ite	gt
    defa:	f04f 0c00 	movgt.w	ip, #0
    defe:	f04f 0c01 	movle.w	ip, #1
    df02:	f88d c02c 	strb.w	ip, [sp, #44]	; 0x2c
    df06:	b160      	cbz	r0, df22 <_ZN7android22QualcommCameraHardware23register_record_buffersEb+0xb2>
    df08:	6e7b      	ldr	r3, [r7, #100]	; 0x64
    df0a:	1e59      	subs	r1, r3, #1
    df0c:	428e      	cmp	r6, r1
    df0e:	bf04      	itt	eq
    df10:	f8cd 9010 	streq.w	r9, [sp, #16]
    df14:	f88d 802c 	strbeq.w	r8, [sp, #44]	; 0x2c
    df18:	e003      	b.n	df22 <_ZN7android22QualcommCameraHardware23register_record_buffersEb+0xb2>
    df1a:	f88d 502c 	strb.w	r5, [sp, #44]	; 0x2c
    df1e:	200c      	movs	r0, #12
    df20:	e000      	b.n	df24 <_ZN7android22QualcommCameraHardware23register_record_buffersEb+0xb4>
    df22:	200b      	movs	r0, #11
    df24:	9903      	ldr	r1, [sp, #12]
    df26:	3601      	adds	r6, #1
    df28:	f7ff fe30 	bl	db8c <_ZN7android22QualcommCameraHardware18filterPictureSizesEv+0x184>
    df2c:	6e7a      	ldr	r2, [r7, #100]	; 0x64
    df2e:	4296      	cmp	r6, r2
    df30:	dbbd      	blt.n	deae <_ZN7android22QualcommCameraHardware23register_record_buffersEb+0x3e>
    df32:	2001      	movs	r0, #1
    df34:	b00d      	add	sp, #52	; 0x34
    df36:	e8bd 8ff0 	ldmia.w	sp!, {r4, r5, r6, r7, r8, r9, sl, fp, pc}
    df3a:	bf00      	nop
    df3c:	c298      	stmia	r2!, {r3, r4, r7}
    df3e:	0000      	lsls	r0, r0, #0
    df40:	ca78      	ldmia	r2!, {r3, r4, r5, r6}
    df42:	0000      	lsls	r0, r0, #0
    df44:	c544      	stmia	r5!, {r2, r6}
    df46:	0000      	lsls	r0, r0, #0
    df48:	1f96      	subs	r6, r2, #6
    df4a:	0001      	lsls	r1, r0, #0

0000df4c <_ZN7android22QualcommCameraHardware16native_set_parmsE21mm_camera_parm_type_ttPvPi>:
    df4c:	e92d 41ff 	stmdb	sp!, {r0, r1, r2, r3, r4, r5, r6, r7, r8, lr}
    df50:	4817      	ldr	r0, [pc, #92]	; (dfb0 <_ZN7android22QualcommCameraHardware16native_set_parmsE21mm_camera_parm_type_ttPvPi+0x64>)
    df52:	460f      	mov	r7, r1
    df54:	4690      	mov	r8, r2
    df56:	4478      	add	r0, pc
    df58:	9e0a      	ldr	r6, [sp, #40]	; 0x28
    df5a:	6ec2      	ldr	r2, [r0, #108]	; 0x6c
    df5c:	4608      	mov	r0, r1
    df5e:	4619      	mov	r1, r3
    df60:	4790      	blx	r2
    df62:	f1d0 0501 	rsbs	r5, r0, #1
    df66:	bf38      	it	cc
    df68:	2500      	movcc	r5, #0
    df6a:	4604      	mov	r4, r0
    df6c:	2805      	cmp	r0, #5
    df6e:	bf08      	it	eq
    df70:	f045 0501 	orreq.w	r5, r5, #1
    df74:	b115      	cbz	r5, df7c <_ZN7android22QualcommCameraHardware16native_set_parmsE21mm_camera_parm_type_ttPvPi+0x30>
    df76:	6030      	str	r0, [r6, #0]
    df78:	2001      	movs	r0, #1
    df7a:	e015      	b.n	dfa8 <_ZN7android22QualcommCameraHardware16native_set_parmsE21mm_camera_parm_type_ttPvPi+0x5c>
    df7c:	f7fd ef90 	blx	bea0 <_ZN7android22QualcommCameraHardware22supportsSceneDetectionEv-0x564>
    df80:	6800      	ldr	r0, [r0, #0]
    df82:	f7fd ef94 	blx	beac <_ZN7android22QualcommCameraHardware22supportsSceneDetectionEv-0x558>
    df86:	4b0b      	ldr	r3, [pc, #44]	; (dfb4 <_ZN7android22QualcommCameraHardware16native_set_parmsE21mm_camera_parm_type_ttPvPi+0x68>)
    df88:	490b      	ldr	r1, [pc, #44]	; (dfb8 <_ZN7android22QualcommCameraHardware16native_set_parmsE21mm_camera_parm_type_ttPvPi+0x6c>)
    df8a:	4a0c      	ldr	r2, [pc, #48]	; (dfbc <_ZN7android22QualcommCameraHardware16native_set_parmsE21mm_camera_parm_type_ttPvPi+0x70>)
    df8c:	447b      	add	r3, pc
    df8e:	4479      	add	r1, pc
    df90:	3380      	adds	r3, #128	; 0x80
    df92:	447a      	add	r2, pc
    df94:	9700      	str	r7, [sp, #0]
    df96:	f8cd 8004 	str.w	r8, [sp, #4]
    df9a:	9403      	str	r4, [sp, #12]
    df9c:	9002      	str	r0, [sp, #8]
    df9e:	2006      	movs	r0, #6
    dfa0:	f7fd eeee 	blx	bd80 <_ZN7android22QualcommCameraHardware22supportsSceneDetectionEv-0x684>
    dfa4:	4628      	mov	r0, r5
    dfa6:	6034      	str	r4, [r6, #0]
    dfa8:	b004      	add	sp, #16
    dfaa:	e8bd 81f0 	ldmia.w	sp!, {r4, r5, r6, r7, r8, pc}
    dfae:	bf00      	nop
    dfb0:	1ed6      	subs	r6, r2, #3
    dfb2:	0001      	lsls	r1, r0, #0
    dfb4:	c18c      	stmia	r1!, {r2, r3, r7}
    dfb6:	0000      	lsls	r0, r0, #0
    dfb8:	c43e      	stmia	r4!, {r1, r2, r3, r4, r5}
    dfba:	0000      	lsls	r0, r0, #0
    dfbc:	c97b      	ldmia	r1!, {r0, r1, r3, r4, r5, r6}
	...

0000dfc0 <_ZN7android22QualcommCameraHardware16native_set_parmsE21mm_camera_parm_type_ttPv>:
    dfc0:	b537      	push	{r0, r1, r2, r4, r5, lr}
    dfc2:	480e      	ldr	r0, [pc, #56]	; (dffc <_ZN7android22QualcommCameraHardware16native_set_parmsE21mm_camera_parm_type_ttPv+0x3c>)
    dfc4:	460c      	mov	r4, r1
    dfc6:	4615      	mov	r5, r2
    dfc8:	4478      	add	r0, pc
    dfca:	6ec2      	ldr	r2, [r0, #108]	; 0x6c
    dfcc:	4608      	mov	r0, r1
    dfce:	4619      	mov	r1, r3
    dfd0:	4790      	blx	r2
    dfd2:	b908      	cbnz	r0, dfd8 <_ZN7android22QualcommCameraHardware16native_set_parmsE21mm_camera_parm_type_ttPv+0x18>
    dfd4:	3001      	adds	r0, #1
    dfd6:	e00f      	b.n	dff8 <_ZN7android22QualcommCameraHardware16native_set_parmsE21mm_camera_parm_type_ttPv+0x38>
    dfd8:	f7fd ef62 	blx	bea0 <_ZN7android22QualcommCameraHardware22supportsSceneDetectionEv-0x564>
    dfdc:	6800      	ldr	r0, [r0, #0]
    dfde:	f7fd ef66 	blx	beac <_ZN7android22QualcommCameraHardware22supportsSceneDetectionEv-0x558>
    dfe2:	4907      	ldr	r1, [pc, #28]	; (e000 <_ZN7android22QualcommCameraHardware16native_set_parmsE21mm_camera_parm_type_ttPv+0x40>)
    dfe4:	4a07      	ldr	r2, [pc, #28]	; (e004 <_ZN7android22QualcommCameraHardware16native_set_parmsE21mm_camera_parm_type_ttPv+0x44>)
    dfe6:	4623      	mov	r3, r4
    dfe8:	4479      	add	r1, pc
    dfea:	9500      	str	r5, [sp, #0]
    dfec:	447a      	add	r2, pc
    dfee:	9001      	str	r0, [sp, #4]
    dff0:	2006      	movs	r0, #6
    dff2:	f7fd eec6 	blx	bd80 <_ZN7android22QualcommCameraHardware22supportsSceneDetectionEv-0x684>
    dff6:	2000      	movs	r0, #0
    dff8:	bd3e      	pop	{r1, r2, r3, r4, r5, pc}
    dffa:	bf00      	nop
    dffc:	1e64      	subs	r4, r4, #1
    dffe:	0001      	lsls	r1, r0, #0
    e000:	c3e4      	stmia	r3!, {r2, r5, r6, r7}
    e002:	0000      	lsls	r0, r0, #0
    e004:	c94b      	ldmia	r1!, {r0, r1, r3, r6}
	...

0000e008 <_ZN7android22QualcommCameraHardware16setVpeParametersEv>:
    e008:	b530      	push	{r4, r5, lr}
    e00a:	f8d0 342c 	ldr.w	r3, [r0, #1068]	; 0x42c
    e00e:	b085      	sub	sp, #20
    e010:	4604      	mov	r4, r0
    e012:	b13b      	cbz	r3, e024 <_ZN7android22QualcommCameraHardware16setVpeParametersEv+0x1c>
    e014:	2b5a      	cmp	r3, #90	; 0x5a
    e016:	d101      	bne.n	e01c <_ZN7android22QualcommCameraHardware16setVpeParametersEv+0x14>
    e018:	2301      	movs	r3, #1
    e01a:	e003      	b.n	e024 <_ZN7android22QualcommCameraHardware16setVpeParametersEv+0x1c>
    e01c:	2bb4      	cmp	r3, #180	; 0xb4
    e01e:	bf0c      	ite	eq
    e020:	2306      	moveq	r3, #6
    e022:	2307      	movne	r3, #7
    e024:	9303      	str	r3, [sp, #12]
    e026:	f8d4 3420 	ldr.w	r3, [r4, #1056]	; 0x420
    e02a:	f5b3 6fa0 	cmp.w	r3, #1280	; 0x500
    e02e:	d104      	bne.n	e03a <_ZN7android22QualcommCameraHardware16setVpeParametersEv+0x32>
    e030:	f8d4 2424 	ldr.w	r2, [r4, #1060]	; 0x424
    e034:	f5b2 7f34 	cmp.w	r2, #720	; 0x2d0
    e038:	e006      	b.n	e048 <_ZN7android22QualcommCameraHardware16setVpeParametersEv+0x40>
    e03a:	f5b3 7f48 	cmp.w	r3, #800	; 0x320
    e03e:	d11d      	bne.n	e07c <_ZN7android22QualcommCameraHardware16setVpeParametersEv+0x74>
    e040:	f8d4 0424 	ldr.w	r0, [r4, #1060]	; 0x424
    e044:	f5b0 7ff0 	cmp.w	r0, #480	; 0x1e0
    e048:	d118      	bne.n	e07c <_ZN7android22QualcommCameraHardware16setVpeParametersEv+0x74>
    e04a:	f8d4 042c 	ldr.w	r0, [r4, #1068]	; 0x42c
    e04e:	285a      	cmp	r0, #90	; 0x5a
    e050:	bf14      	ite	ne
    e052:	2100      	movne	r1, #0
    e054:	2101      	moveq	r1, #1
    e056:	f5b0 7f87 	cmp.w	r0, #270	; 0x10e
    e05a:	bf08      	it	eq
    e05c:	f041 0101 	orreq.w	r1, r1, #1
    e060:	b161      	cbz	r1, e07c <_ZN7android22QualcommCameraHardware16setVpeParametersEv+0x74>
    e062:	f8d4 5424 	ldr.w	r5, [r4, #1060]	; 0x424
    e066:	490c      	ldr	r1, [pc, #48]	; (e098 <_ZN7android22QualcommCameraHardware16setVpeParametersEv+0x90>)
    e068:	4a0c      	ldr	r2, [pc, #48]	; (e09c <_ZN7android22QualcommCameraHardware16setVpeParametersEv+0x94>)
    e06a:	9001      	str	r0, [sp, #4]
    e06c:	4479      	add	r1, pc
    e06e:	447a      	add	r2, pc
    e070:	2004      	movs	r0, #4
    e072:	9500      	str	r5, [sp, #0]
    e074:	f7fd ee84 	blx	bd80 <_ZN7android22QualcommCameraHardware22supportsSceneDetectionEv-0x684>
    e078:	2300      	movs	r3, #0
    e07a:	9303      	str	r3, [sp, #12]
    e07c:	4620      	mov	r0, r4
    e07e:	211c      	movs	r1, #28
    e080:	2204      	movs	r2, #4
    e082:	ab03      	add	r3, sp, #12
    e084:	f7ff ff9c 	bl	dfc0 <_ZN7android22QualcommCameraHardware16native_set_parmsE21mm_camera_parm_type_ttPv>
    e088:	2800      	cmp	r0, #0
    e08a:	bf0c      	ite	eq
    e08c:	f04f 4000 	moveq.w	r0, #2147483648	; 0x80000000
    e090:	2000      	movne	r0, #0
    e092:	b005      	add	sp, #20
    e094:	bd30      	pop	{r4, r5, pc}
    e096:	bf00      	nop
    e098:	c360      	stmia	r3!, {r5, r6}
    e09a:	0000      	lsls	r0, r0, #0
    e09c:	c8fd      	ldmia	r0!, {r0, r2, r3, r4, r5, r6, r7}
	...

0000e0a0 <_ZN7android22QualcommCameraHardware17native_zoom_imageEiiiP13common_crop_tii>:
    e0a0:	4830      	ldr	r0, [pc, #192]	; (e164 <_ZN7android22QualcommCameraHardware17native_zoom_imageEiiiP13common_crop_tii+0xc4>)
    e0a2:	f8df c0c4 	ldr.w	ip, [pc, #196]	; e168 <_ZN7android22QualcommCameraHardware17native_zoom_imageEiiiP13common_crop_tii+0xc8>
    e0a6:	4478      	add	r0, pc
    e0a8:	e92d 41f0 	stmdb	sp!, {r4, r5, r6, r7, r8, lr}
    e0ac:	f850 400c 	ldr.w	r4, [r0, ip]
    e0b0:	9d06      	ldr	r5, [sp, #24]
    e0b2:	469e      	mov	lr, r3
    e0b4:	9f07      	ldr	r7, [sp, #28]
    e0b6:	2301      	movs	r3, #1
    e0b8:	9e08      	ldr	r6, [sp, #32]
    e0ba:	6122      	str	r2, [r4, #16]
    e0bc:	f04f 32ff 	mov.w	r2, #4294967295
    e0c0:	6161      	str	r1, [r4, #20]
    e0c2:	62e1      	str	r1, [r4, #44]	; 0x2c
    e0c4:	1c51      	adds	r1, r2, #1
    e0c6:	6023      	str	r3, [r4, #0]
    e0c8:	18db      	adds	r3, r3, r3
    e0ca:	6067      	str	r7, [r4, #4]
    e0cc:	60e3      	str	r3, [r4, #12]
    e0ce:	6263      	str	r3, [r4, #36]	; 0x24
    e0d0:	f111 03ff 	adds.w	r3, r1, #255	; 0xff
    e0d4:	60a6      	str	r6, [r4, #8]
    e0d6:	61e7      	str	r7, [r4, #28]
    e0d8:	6226      	str	r6, [r4, #32]
    e0da:	f8c4 e028 	str.w	lr, [r4, #40]	; 0x28
    e0de:	65a2      	str	r2, [r4, #88]	; 0x58
    e0e0:	65e1      	str	r1, [r4, #92]	; 0x5c
    e0e2:	6563      	str	r3, [r4, #84]	; 0x54
    e0e4:	682b      	ldr	r3, [r5, #0]
    e0e6:	b19b      	cbz	r3, e110 <_ZN7android22QualcommCameraHardware17native_zoom_imageEiiiP13common_crop_tii+0x70>
    e0e8:	68a9      	ldr	r1, [r5, #8]
    e0ea:	b189      	cbz	r1, e110 <_ZN7android22QualcommCameraHardware17native_zoom_imageEiiiP13common_crop_tii+0x70>
    e0ec:	686a      	ldr	r2, [r5, #4]
    e0ee:	1c51      	adds	r1, r2, #1
    e0f0:	1acb      	subs	r3, r1, r3
    e0f2:	085a      	lsrs	r2, r3, #1
    e0f4:	1e51      	subs	r1, r2, #1
    e0f6:	6361      	str	r1, [r4, #52]	; 0x34
    e0f8:	68eb      	ldr	r3, [r5, #12]
    e0fa:	68aa      	ldr	r2, [r5, #8]
    e0fc:	1c59      	adds	r1, r3, #1
    e0fe:	1a8b      	subs	r3, r1, r2
    e100:	085a      	lsrs	r2, r3, #1
    e102:	1e51      	subs	r1, r2, #1
    e104:	63a1      	str	r1, [r4, #56]	; 0x38
    e106:	682b      	ldr	r3, [r5, #0]
    e108:	63e3      	str	r3, [r4, #60]	; 0x3c
    e10a:	68aa      	ldr	r2, [r5, #8]
    e10c:	6422      	str	r2, [r4, #64]	; 0x40
    e10e:	e008      	b.n	e122 <_ZN7android22QualcommCameraHardware17native_zoom_imageEiiiP13common_crop_tii+0x82>
    e110:	f8df e054 	ldr.w	lr, [pc, #84]	; e168 <_ZN7android22QualcommCameraHardware17native_zoom_imageEiiiP13common_crop_tii+0xc8>
    e114:	2100      	movs	r1, #0
    e116:	f850 400e 	ldr.w	r4, [r0, lr]
    e11a:	6361      	str	r1, [r4, #52]	; 0x34
    e11c:	63a1      	str	r1, [r4, #56]	; 0x38
    e11e:	63e7      	str	r7, [r4, #60]	; 0x3c
    e120:	6426      	str	r6, [r4, #64]	; 0x40
    e122:	4b11      	ldr	r3, [pc, #68]	; (e168 <_ZN7android22QualcommCameraHardware17native_zoom_imageEiiiP13common_crop_tii+0xc8>)
    e124:	2400      	movs	r4, #0
    e126:	f8df c044 	ldr.w	ip, [pc, #68]	; e16c <_ZN7android22QualcommCameraHardware17native_zoom_imageEiiiP13common_crop_tii+0xcc>
    e12a:	490d      	ldr	r1, [pc, #52]	; (e160 <_ZN7android22QualcommCameraHardware17native_zoom_imageEiiiP13common_crop_tii+0xc0>)
    e12c:	58c2      	ldr	r2, [r0, r3]
    e12e:	44fc      	add	ip, pc
    e130:	6454      	str	r4, [r2, #68]	; 0x44
    e132:	6494      	str	r4, [r2, #72]	; 0x48
    e134:	64d7      	str	r7, [r2, #76]	; 0x4c
    e136:	6516      	str	r6, [r2, #80]	; 0x50
    e138:	f8dc 0044 	ldr.w	r0, [ip, #68]	; 0x44
    e13c:	f7fd eebc 	blx	beb8 <_ZN7android22QualcommCameraHardware22supportsSceneDetectionEv-0x54c>
    e140:	42a0      	cmp	r0, r4
    e142:	db01      	blt.n	e148 <_ZN7android22QualcommCameraHardware17native_zoom_imageEiiiP13common_crop_tii+0xa8>
    e144:	2001      	movs	r0, #1
    e146:	e009      	b.n	e15c <_ZN7android22QualcommCameraHardware17native_zoom_imageEiiiP13common_crop_tii+0xbc>
    e148:	4909      	ldr	r1, [pc, #36]	; (e170 <_ZN7android22QualcommCameraHardware17native_zoom_imageEiiiP13common_crop_tii+0xd0>)
    e14a:	2006      	movs	r0, #6
    e14c:	4a09      	ldr	r2, [pc, #36]	; (e174 <_ZN7android22QualcommCameraHardware17native_zoom_imageEiiiP13common_crop_tii+0xd4>)
    e14e:	f241 539c 	movw	r3, #5532	; 0x159c
    e152:	4479      	add	r1, pc
    e154:	447a      	add	r2, pc
    e156:	f7fd ee14 	blx	bd80 <_ZN7android22QualcommCameraHardware22supportsSceneDetectionEv-0x684>
    e15a:	4620      	mov	r0, r4
    e15c:	e8bd 81f0 	ldmia.w	sp!, {r4, r5, r6, r7, r8, pc}
    e160:	6d02      	ldr	r2, [r0, #80]	; 0x50
    e162:	4004      	ands	r4, r0
    e164:	1a52      	subs	r2, r2, r1
    e166:	0001      	lsls	r1, r0, #0
    e168:	fd90 ffff 	ldc2	15, cr15, [r0, #1020]	; 0x3fc
    e16c:	1c0e      	adds	r6, r1, #0
    e16e:	0001      	lsls	r1, r0, #0
    e170:	c27a      	stmia	r2!, {r1, r3, r4, r5, r6}
    e172:	0000      	lsls	r0, r0, #0
    e174:	c86e      	ldmia	r0!, {r1, r2, r3, r5, r6}
	...

0000e178 <_ZN7android22QualcommCameraHardware7MemPool22completeInitializationEv>:
    e178:	e92d 43f7 	stmdb	sp!, {r0, r1, r2, r4, r5, r6, r7, r8, r9, lr}
    e17c:	6943      	ldr	r3, [r0, #20]
    e17e:	4604      	mov	r4, r0
    e180:	2b00      	cmp	r3, #0
    e182:	dd34      	ble.n	e1ee <_ZN7android22QualcommCameraHardware7MemPool22completeInitializationEv+0x76>
    e184:	6905      	ldr	r5, [r0, #16]
    e186:	1ca8      	adds	r0, r5, #2
    e188:	0080      	lsls	r0, r0, #2
    e18a:	f7fd ee9c 	blx	bec4 <_ZN7android22QualcommCameraHardware22supportsSceneDetectionEv-0x540>
    e18e:	2300      	movs	r3, #0
    e190:	2104      	movs	r1, #4
    e192:	6045      	str	r5, [r0, #4]
    e194:	f100 0208 	add.w	r2, r0, #8
    e198:	6001      	str	r1, [r0, #0]
    e19a:	4619      	mov	r1, r3
    e19c:	e002      	b.n	e1a4 <_ZN7android22QualcommCameraHardware7MemPool22completeInitializationEv+0x2c>
    e19e:	6081      	str	r1, [r0, #8]
    e1a0:	3301      	adds	r3, #1
    e1a2:	3004      	adds	r0, #4
    e1a4:	42ab      	cmp	r3, r5
    e1a6:	d1fa      	bne.n	e19e <_ZN7android22QualcommCameraHardware7MemPool22completeInitializationEv+0x26>
    e1a8:	61e2      	str	r2, [r4, #28]
    e1aa:	f104 0918 	add.w	r9, r4, #24
    e1ae:	2500      	movs	r5, #0
    e1b0:	ae01      	add	r6, sp, #4
    e1b2:	e019      	b.n	e1e8 <_ZN7android22QualcommCameraHardware7MemPool22completeInitializationEv+0x70>
    e1b4:	4649      	mov	r1, r9
    e1b6:	4630      	mov	r0, r6
    e1b8:	69e7      	ldr	r7, [r4, #28]
    e1ba:	f7fe fe2f 	bl	ce1c <_ZN7android2spINS_11IMemoryHeapEEC1INS_14MemoryHeapBaseEEERKNS0_IT_EE>
    e1be:	2024      	movs	r0, #36	; 0x24
    e1c0:	f7fd ee86 	blx	bed0 <_ZN7android22QualcommCameraHardware22supportsSceneDetectionEv-0x534>
    e1c4:	68e2      	ldr	r2, [r4, #12]
    e1c6:	eb07 0885 	add.w	r8, r7, r5, lsl #2
    e1ca:	6963      	ldr	r3, [r4, #20]
    e1cc:	4631      	mov	r1, r6
    e1ce:	fb02 f205 	mul.w	r2, r2, r5
    e1d2:	3501      	adds	r5, #1
    e1d4:	4607      	mov	r7, r0
    e1d6:	f7fd ee82 	blx	bedc <_ZN7android22QualcommCameraHardware22supportsSceneDetectionEv-0x528>
    e1da:	4639      	mov	r1, r7
    e1dc:	4640      	mov	r0, r8
    e1de:	f7fe ff7d 	bl	d0dc <_ZN7android2spINS_10MemoryBaseEEaSEPS1_>
    e1e2:	4630      	mov	r0, r6
    e1e4:	f7fe ff92 	bl	d10c <_ZN7android2spINS_11IMemoryHeapEED1Ev>
    e1e8:	6923      	ldr	r3, [r4, #16]
    e1ea:	429d      	cmp	r5, r3
    e1ec:	dbe2      	blt.n	e1b4 <_ZN7android22QualcommCameraHardware7MemPool22completeInitializationEv+0x3c>
    e1ee:	e8bd 83fe 	ldmia.w	sp!, {r1, r2, r3, r4, r5, r6, r7, r8, r9, pc}
    e1f2:	bf00      	nop

0000e1f4 <_ZN7android22QualcommCameraHardware18receiveJpegPictureEiP18mm_camera_buffer_t>:
    e1f4:	e92d 43f0 	stmdb	sp!, {r4, r5, r6, r7, r8, r9, lr}
    e1f8:	4604      	mov	r4, r0
    e1fa:	460f      	mov	r7, r1
    e1fc:	b087      	sub	sp, #28
    e1fe:	f500 70a6 	add.w	r0, r0, #332	; 0x14c
    e202:	4690      	mov	r8, r2
    e204:	f1d7 0701 	rsbs	r7, r7, #1
    e208:	bf38      	it	cc
    e20a:	2700      	movcc	r7, #0
    e20c:	f7fe fd28 	bl	cc60 <_ZN7android22QualcommCameraHardware10MMCameraDLD2Ev+0x4c>
    e210:	68e1      	ldr	r1, [r4, #12]
    e212:	f1b8 0f00 	cmp.w	r8, #0
    e216:	bf0c      	ite	eq
    e218:	2300      	moveq	r3, #0
    e21a:	f007 0301 	andne.w	r3, r7, #1
    e21e:	1c48      	adds	r0, r1, #1
    e220:	60e0      	str	r0, [r4, #12]
    e222:	2b00      	cmp	r3, #0
    e224:	d031      	beq.n	e28a <_ZN7android22QualcommCameraHardware18receiveJpegPictureEiP18mm_camera_buffer_t+0x96>
    e226:	6d61      	ldr	r1, [r4, #84]	; 0x54
    e228:	f8d8 5000 	ldr.w	r5, [r8]
    e22c:	f8d8 6004 	ldr.w	r6, [r8, #4]
    e230:	698b      	ldr	r3, [r1, #24]
    e232:	681a      	ldr	r2, [r3, #0]
    e234:	f852 0c0c 	ldr.w	r0, [r2, #-12]
    e238:	1818      	adds	r0, r3, r0
    e23a:	f7fe f8c9 	bl	c3d0 <_ZN7android22QualcommCameraHardware22supportsSceneDetectionEv-0x34>
    e23e:	6d61      	ldr	r1, [r4, #84]	; 0x54
    e240:	f8d8 8000 	ldr.w	r8, [r8]
    e244:	698b      	ldr	r3, [r1, #24]
    e246:	681a      	ldr	r2, [r3, #0]
    e248:	1a2d      	subs	r5, r5, r0
    e24a:	f852 0c0c 	ldr.w	r0, [r2, #-12]
    e24e:	1818      	adds	r0, r3, r0
    e250:	f7fe f8be 	bl	c3d0 <_ZN7android22QualcommCameraHardware22supportsSceneDetectionEv-0x34>
    e254:	4949      	ldr	r1, [pc, #292]	; (e37c <_ZN7android22QualcommCameraHardware18receiveJpegPictureEiP18mm_camera_buffer_t+0x188>)
    e256:	4a4a      	ldr	r2, [pc, #296]	; (e380 <_ZN7android22QualcommCameraHardware18receiveJpegPictureEiP18mm_camera_buffer_t+0x18c>)
    e258:	462b      	mov	r3, r5
    e25a:	4479      	add	r1, pc
    e25c:	f8cd 8000 	str.w	r8, [sp]
    e260:	447a      	add	r2, pc
    e262:	9001      	str	r0, [sp, #4]
    e264:	2006      	movs	r0, #6
    e266:	f7fd ed8c 	blx	bd80 <_ZN7android22QualcommCameraHardware22supportsSceneDetectionEv-0x684>
    e26a:	f8d4 8054 	ldr.w	r8, [r4, #84]	; 0x54
    e26e:	4628      	mov	r0, r5
    e270:	f8d8 9008 	ldr.w	r9, [r8, #8]
    e274:	4649      	mov	r1, r9
    e276:	f7fd ee38 	blx	bee8 <_ZN7android22QualcommCameraHardware22supportsSceneDetectionEv-0x51c>
    e27a:	4605      	mov	r5, r0
    e27c:	b11e      	cbz	r6, e286 <_ZN7android22QualcommCameraHardware18receiveJpegPictureEiP18mm_camera_buffer_t+0x92>
    e27e:	454e      	cmp	r6, r9
    e280:	bfd8      	it	le
    e282:	f8c8 6014 	strle.w	r6, [r8, #20]
    e286:	2d02      	cmp	r5, #2
    e288:	d91c      	bls.n	e2c4 <_ZN7android22QualcommCameraHardware18receiveJpegPictureEiP18mm_camera_buffer_t+0xd0>
    e28a:	493e      	ldr	r1, [pc, #248]	; (e384 <_ZN7android22QualcommCameraHardware18receiveJpegPictureEiP18mm_camera_buffer_t+0x190>)
    e28c:	2006      	movs	r0, #6
    e28e:	4a3e      	ldr	r2, [pc, #248]	; (e388 <_ZN7android22QualcommCameraHardware18receiveJpegPictureEiP18mm_camera_buffer_t+0x194>)
    e290:	4479      	add	r1, pc
    e292:	447a      	add	r2, pc
    e294:	f7fd ed74 	blx	bd80 <_ZN7android22QualcommCameraHardware22supportsSceneDetectionEv-0x684>
    e298:	f8d4 33f0 	ldr.w	r3, [r4, #1008]	; 0x3f0
    e29c:	2b00      	cmp	r3, #0
    e29e:	d057      	beq.n	e350 <_ZN7android22QualcommCameraHardware18receiveJpegPictureEiP18mm_camera_buffer_t+0x15c>
    e2a0:	f8d4 53e8 	ldr.w	r5, [r4, #1000]	; 0x3e8
    e2a4:	05e8      	lsls	r0, r5, #23
    e2a6:	d553      	bpl.n	e350 <_ZN7android22QualcommCameraHardware18receiveJpegPictureEiP18mm_camera_buffer_t+0x15c>
    e2a8:	ad06      	add	r5, sp, #24
    e2aa:	2000      	movs	r0, #0
    e2ac:	f845 0d04 	str.w	r0, [r5, #-4]!
    e2b0:	f44f 7080 	mov.w	r0, #256	; 0x100
    e2b4:	4629      	mov	r1, r5
    e2b6:	f8d4 23f8 	ldr.w	r2, [r4, #1016]	; 0x3f8
    e2ba:	4798      	blx	r3
    e2bc:	4628      	mov	r0, r5
    e2be:	f7fe ffdb 	bl	d278 <_ZN7android2spINS_7IMemoryEED1Ev>
    e2c2:	e045      	b.n	e350 <_ZN7android22QualcommCameraHardware18receiveJpegPictureEiP18mm_camera_buffer_t+0x15c>
    e2c4:	f8d4 33f0 	ldr.w	r3, [r4, #1008]	; 0x3f0
    e2c8:	2b00      	cmp	r3, #0
    e2ca:	d03d      	beq.n	e348 <_ZN7android22QualcommCameraHardware18receiveJpegPictureEiP18mm_camera_buffer_t+0x154>
    e2cc:	f8d4 23e8 	ldr.w	r2, [r4, #1000]	; 0x3e8
    e2d0:	05d1      	lsls	r1, r2, #23
    e2d2:	d539      	bpl.n	e348 <_ZN7android22QualcommCameraHardware18receiveJpegPictureEiP18mm_camera_buffer_t+0x154>
    e2d4:	6d63      	ldr	r3, [r4, #84]	; 0x54
    e2d6:	f10d 080c 	add.w	r8, sp, #12
    e2da:	4640      	mov	r0, r8
    e2dc:	f113 0118 	adds.w	r1, r3, #24
    e2e0:	f7fe fd9c 	bl	ce1c <_ZN7android2spINS_11IMemoryHeapEEC1INS_14MemoryHeapBaseEEERKNS0_IT_EE>
    e2e4:	6d60      	ldr	r0, [r4, #84]	; 0x54
    e2e6:	6881      	ldr	r1, [r0, #8]
    e2e8:	2024      	movs	r0, #36	; 0x24
    e2ea:	fb01 f905 	mul.w	r9, r1, r5
    e2ee:	f7fd edf0 	blx	bed0 <_ZN7android22QualcommCameraHardware22supportsSceneDetectionEv-0x534>
    e2f2:	4641      	mov	r1, r8
    e2f4:	4633      	mov	r3, r6
    e2f6:	464a      	mov	r2, r9
    e2f8:	4605      	mov	r5, r0
    e2fa:	f7fd edf0 	blx	bedc <_ZN7android22QualcommCameraHardware22supportsSceneDetectionEv-0x528>
    e2fe:	9504      	str	r5, [sp, #16]
    e300:	b135      	cbz	r5, e310 <_ZN7android22QualcommCameraHardware18receiveJpegPictureEiP18mm_camera_buffer_t+0x11c>
    e302:	6829      	ldr	r1, [r5, #0]
    e304:	f851 2c0c 	ldr.w	r2, [r1, #-12]
    e308:	a904      	add	r1, sp, #16
    e30a:	18a8      	adds	r0, r5, r2
    e30c:	f7fd ed8c 	blx	be28 <_ZN7android22QualcommCameraHardware22supportsSceneDetectionEv-0x5dc>
    e310:	a803      	add	r0, sp, #12
    e312:	f7fe fefb 	bl	d10c <_ZN7android2spINS_11IMemoryHeapEED1Ev>
    e316:	b17f      	cbz	r7, e338 <_ZN7android22QualcommCameraHardware18receiveJpegPictureEiP18mm_camera_buffer_t+0x144>
    e318:	ad02      	add	r5, sp, #8
    e31a:	a904      	add	r1, sp, #16
    e31c:	4628      	mov	r0, r5
    e31e:	f8d4 63f0 	ldr.w	r6, [r4, #1008]	; 0x3f0
    e322:	f7fe fd8f 	bl	ce44 <_ZN7android2spINS_7IMemoryEEC1INS_10MemoryBaseEEERKNS0_IT_EE>
    e326:	f44f 7080 	mov.w	r0, #256	; 0x100
    e32a:	4629      	mov	r1, r5
    e32c:	f8d4 23f8 	ldr.w	r2, [r4, #1016]	; 0x3f8
    e330:	47b0      	blx	r6
    e332:	4628      	mov	r0, r5
    e334:	f7fe ffa0 	bl	d278 <_ZN7android2spINS_7IMemoryEED1Ev>
    e338:	ad04      	add	r5, sp, #16
    e33a:	2100      	movs	r1, #0
    e33c:	4628      	mov	r0, r5
    e33e:	f7fe fecd 	bl	d0dc <_ZN7android2spINS_10MemoryBaseEEaSEPS1_>
    e342:	4628      	mov	r0, r5
    e344:	f7fe fddc 	bl	cf00 <_ZN7android2spINS_10MemoryBaseEED1Ev>
    e348:	68e0      	ldr	r0, [r4, #12]
    e34a:	68a3      	ldr	r3, [r4, #8]
    e34c:	4298      	cmp	r0, r3
    e34e:	d10e      	bne.n	e36e <_ZN7android22QualcommCameraHardware18receiveJpegPictureEiP18mm_camera_buffer_t+0x17a>
    e350:	f504 758a 	add.w	r5, r4, #276	; 0x114
    e354:	4628      	mov	r0, r5
    e356:	f7fe fc83 	bl	cc60 <_ZN7android22QualcommCameraHardware10MMCameraDLD2Ev+0x4c>
    e35a:	2200      	movs	r2, #0
    e35c:	f504 708c 	add.w	r0, r4, #280	; 0x118
    e360:	f884 2110 	strb.w	r2, [r4, #272]	; 0x110
    e364:	f7fd ed5a 	blx	be1c <_ZN7android22QualcommCameraHardware22supportsSceneDetectionEv-0x5e8>
    e368:	4628      	mov	r0, r5
    e36a:	f7fd ed52 	blx	be10 <_ZN7android22QualcommCameraHardware22supportsSceneDetectionEv-0x5f4>
    e36e:	f504 70a6 	add.w	r0, r4, #332	; 0x14c
    e372:	f7fd ed4e 	blx	be10 <_ZN7android22QualcommCameraHardware22supportsSceneDetectionEv-0x5f4>
    e376:	b007      	add	sp, #28
    e378:	e8bd 83f0 	ldmia.w	sp!, {r4, r5, r6, r7, r8, r9, pc}
    e37c:	c172      	stmia	r1!, {r1, r4, r5, r6}
    e37e:	0000      	lsls	r0, r0, #0
    e380:	c77f      	stmia	r7!, {r0, r1, r2, r3, r4, r5, r6}
    e382:	0000      	lsls	r0, r0, #0
    e384:	c13c      	stmia	r1!, {r2, r3, r4, r5}
    e386:	0000      	lsls	r0, r0, #0
    e388:	c781      	stmia	r7!, {r0, r7}
	...

0000e38c <_ZN7android22QualcommCameraHardware7MemPoolC1EiiiPKc>:
    e38c:	e92d 41f0 	stmdb	sp!, {r4, r5, r6, r7, r8, lr}
    e390:	4d12      	ldr	r5, [pc, #72]	; (e3dc <_ZN7android22QualcommCameraHardware7MemPoolC1EiiiPKc+0x50>)
    e392:	4604      	mov	r4, r0
    e394:	460e      	mov	r6, r1
    e396:	4617      	mov	r7, r2
    e398:	4698      	mov	r8, r3
    e39a:	f7fd edac 	blx	bef4 <_ZN7android22QualcommCameraHardware22supportsSceneDetectionEv-0x510>
    e39e:	f8df c040 	ldr.w	ip, [pc, #64]	; e3e0 <_ZN7android22QualcommCameraHardware7MemPoolC1EiiiPKc+0x54>
    e3a2:	447d      	add	r5, pc
    e3a4:	9b06      	ldr	r3, [sp, #24]
    e3a6:	2000      	movs	r0, #0
    e3a8:	60a6      	str	r6, [r4, #8]
    e3aa:	f855 200c 	ldr.w	r2, [r5, ip]
    e3ae:	f8df c034 	ldr.w	ip, [pc, #52]	; e3e4 <_ZN7android22QualcommCameraHardware7MemPoolC1EiiiPKc+0x58>
    e3b2:	f112 0108 	adds.w	r1, r2, #8
    e3b6:	61a0      	str	r0, [r4, #24]
    e3b8:	61e0      	str	r0, [r4, #28]
    e3ba:	f855 200c 	ldr.w	r2, [r5, ip]
    e3be:	6223      	str	r3, [r4, #32]
    e3c0:	6021      	str	r1, [r4, #0]
    e3c2:	6127      	str	r7, [r4, #16]
    e3c4:	f8c4 8014 	str.w	r8, [r4, #20]
    e3c8:	6811      	ldr	r1, [r2, #0]
    e3ca:	1e48      	subs	r0, r1, #1
    e3cc:	1836      	adds	r6, r6, r0
    e3ce:	ea26 0300 	bic.w	r3, r6, r0
    e3d2:	4620      	mov	r0, r4
    e3d4:	60e3      	str	r3, [r4, #12]
    e3d6:	e8bd 81f0 	ldmia.w	sp!, {r4, r5, r6, r7, r8, pc}
    e3da:	bf00      	nop
    e3dc:	1756      	asrs	r6, r2, #29
    e3de:	0001      	lsls	r1, r0, #0
    e3e0:	fd84 ffff 	stc2	15, cr15, [r4, #1020]	; 0x3fc
    e3e4:	fd94 ffff 	ldc2	15, cr15, [r4, #1020]	; 0x3fc

0000e3e8 <_ZN7android22QualcommCameraHardware7MemPoolC2EiiiPKc>:
    e3e8:	e92d 41f0 	stmdb	sp!, {r4, r5, r6, r7, r8, lr}
    e3ec:	4d12      	ldr	r5, [pc, #72]	; (e438 <_ZN7android22QualcommCameraHardware7MemPoolC2EiiiPKc+0x50>)
    e3ee:	4604      	mov	r4, r0
    e3f0:	460e      	mov	r6, r1
    e3f2:	4617      	mov	r7, r2
    e3f4:	4698      	mov	r8, r3
    e3f6:	f7fd ed7e 	blx	bef4 <_ZN7android22QualcommCameraHardware22supportsSceneDetectionEv-0x510>
    e3fa:	f8df c040 	ldr.w	ip, [pc, #64]	; e43c <_ZN7android22QualcommCameraHardware7MemPoolC2EiiiPKc+0x54>
    e3fe:	447d      	add	r5, pc
    e400:	9b06      	ldr	r3, [sp, #24]
    e402:	2000      	movs	r0, #0
    e404:	60a6      	str	r6, [r4, #8]
    e406:	f855 200c 	ldr.w	r2, [r5, ip]
    e40a:	f8df c034 	ldr.w	ip, [pc, #52]	; e440 <_ZN7android22QualcommCameraHardware7MemPoolC2EiiiPKc+0x58>
    e40e:	f112 0108 	adds.w	r1, r2, #8
    e412:	61a0      	str	r0, [r4, #24]
    e414:	61e0      	str	r0, [r4, #28]
    e416:	f855 200c 	ldr.w	r2, [r5, ip]
    e41a:	6223      	str	r3, [r4, #32]
    e41c:	6021      	str	r1, [r4, #0]
    e41e:	6127      	str	r7, [r4, #16]
    e420:	f8c4 8014 	str.w	r8, [r4, #20]
    e424:	6811      	ldr	r1, [r2, #0]
    e426:	1e48      	subs	r0, r1, #1
    e428:	1836      	adds	r6, r6, r0
    e42a:	ea26 0300 	bic.w	r3, r6, r0
    e42e:	4620      	mov	r0, r4
    e430:	60e3      	str	r3, [r4, #12]
    e432:	e8bd 81f0 	ldmia.w	sp!, {r4, r5, r6, r7, r8, pc}
    e436:	bf00      	nop
    e438:	16fa      	asrs	r2, r7, #27
    e43a:	0001      	lsls	r1, r0, #0
    e43c:	fd84 ffff 	stc2	15, cr15, [r4, #1020]	; 0x3fc
    e440:	fd94 ffff 	ldc2	15, cr15, [r4, #1020]	; 0x3fc

0000e444 <_ZN7android22QualcommCameraHardware10AshmemPoolC1EiiiPKc>:
    e444:	e92d 43f7 	stmdb	sp!, {r0, r1, r2, r4, r5, r6, r7, r8, r9, lr}
    e448:	4605      	mov	r5, r0
    e44a:	980a      	ldr	r0, [sp, #40]	; 0x28
    e44c:	4690      	mov	r8, r2
    e44e:	4c15      	ldr	r4, [pc, #84]	; (e4a4 <_ZN7android22QualcommCameraHardware10AshmemPoolC1EiiiPKc+0x60>)
    e450:	460f      	mov	r7, r1
    e452:	f8df 9054 	ldr.w	r9, [pc, #84]	; e4a8 <_ZN7android22QualcommCameraHardware10AshmemPoolC1EiiiPKc+0x64>
    e456:	9000      	str	r0, [sp, #0]
    e458:	4628      	mov	r0, r5
    e45a:	f7ff ffc5 	bl	e3e8 <_ZN7android22QualcommCameraHardware7MemPoolC2EiiiPKc>
    e45e:	447c      	add	r4, pc
    e460:	4912      	ldr	r1, [pc, #72]	; (e4ac <_ZN7android22QualcommCameraHardware10AshmemPoolC1EiiiPKc+0x68>)
    e462:	f854 6009 	ldr.w	r6, [r4, r9]
    e466:	5860      	ldr	r0, [r4, r1]
    e468:	f116 0208 	adds.w	r2, r6, #8
    e46c:	462e      	mov	r6, r5
    e46e:	f846 2b18 	str.w	r2, [r6], #24
    e472:	6803      	ldr	r3, [r0, #0]
    e474:	2034      	movs	r0, #52	; 0x34
    e476:	f103 39ff 	add.w	r9, r3, #4294967295
    e47a:	f7fd ed2a 	blx	bed0 <_ZN7android22QualcommCameraHardware22supportsSceneDetectionEv-0x534>
    e47e:	2200      	movs	r2, #0
    e480:	fb07 9708 	mla	r7, r7, r8, r9
    e484:	4613      	mov	r3, r2
    e486:	ea27 0109 	bic.w	r1, r7, r9
    e48a:	4604      	mov	r4, r0
    e48c:	f7fd ed38 	blx	bf00 <_ZN7android22QualcommCameraHardware22supportsSceneDetectionEv-0x504>
    e490:	4621      	mov	r1, r4
    e492:	4630      	mov	r0, r6
    e494:	f7fe fe0a 	bl	d0ac <_ZN7android2spINS_14MemoryHeapBaseEEaSEPS1_>
    e498:	4628      	mov	r0, r5
    e49a:	f7ff fe6d 	bl	e178 <_ZN7android22QualcommCameraHardware7MemPool22completeInitializationEv>
    e49e:	4628      	mov	r0, r5
    e4a0:	e8bd 83fe 	ldmia.w	sp!, {r1, r2, r3, r4, r5, r6, r7, r8, r9, pc}
    e4a4:	169a      	asrs	r2, r3, #26
    e4a6:	0001      	lsls	r1, r0, #0
    e4a8:	fd88 ffff 	stc2	15, cr15, [r8, #1020]	; 0x3fc
    e4ac:	fd94 ffff 	ldc2	15, cr15, [r4, #1020]	; 0x3fc

0000e4b0 <_ZN7android22QualcommCameraHardware14setHistogramOnEv>:
    e4b0:	b5f7      	push	{r0, r1, r2, r4, r5, r6, r7, lr}
    e4b2:	4604      	mov	r4, r0
    e4b4:	f100 06e4 	add.w	r6, r0, #228	; 0xe4
    e4b8:	4d33      	ldr	r5, [pc, #204]	; (e588 <_ZN7android22QualcommCameraHardware14setHistogramOnEv+0xd8>)
    e4ba:	4630      	mov	r0, r6
    e4bc:	f7fe fbd0 	bl	cc60 <_ZN7android22QualcommCameraHardware10MMCameraDLD2Ev+0x4c>
    e4c0:	f8d4 30d8 	ldr.w	r3, [r4, #216]	; 0xd8
    e4c4:	2001      	movs	r0, #1
    e4c6:	447d      	add	r5, pc
    e4c8:	2b01      	cmp	r3, #1
    e4ca:	f884 00e0 	strb.w	r0, [r4, #224]	; 0xe0
    e4ce:	d103      	bne.n	e4d8 <_ZN7android22QualcommCameraHardware14setHistogramOnEv+0x28>
    e4d0:	4630      	mov	r0, r6
    e4d2:	f7fd ec9e 	blx	be10 <_ZN7android22QualcommCameraHardware22supportsSceneDetectionEv-0x5f4>
    e4d6:	e054      	b.n	e582 <_ZN7android22QualcommCameraHardware14setHistogramOnEv+0xd2>
    e4d8:	6da1      	ldr	r1, [r4, #88]	; 0x58
    e4da:	b119      	cbz	r1, e4e4 <_ZN7android22QualcommCameraHardware14setHistogramOnEv+0x34>
    e4dc:	f104 0058 	add.w	r0, r4, #88	; 0x58
    e4e0:	f7fe ff3a 	bl	d358 <_ZN7android2spINS_22QualcommCameraHardware10AshmemPoolEE5clearEv>
    e4e4:	f8df c0a4 	ldr.w	ip, [pc, #164]	; e58c <_ZN7android22QualcommCameraHardware14setHistogramOnEv+0xdc>
    e4e8:	f240 4204 	movw	r2, #1028	; 0x404
    e4ec:	f04f 36ff 	mov.w	r6, #4294967295
    e4f0:	f8c4 217c 	str.w	r2, [r4, #380]	; 0x17c
    e4f4:	f8c4 60dc 	str.w	r6, [r4, #220]	; 0xdc
    e4f8:	2024      	movs	r0, #36	; 0x24
    e4fa:	f855 100c 	ldr.w	r1, [r5, ip]
    e4fe:	f104 0558 	add.w	r5, r4, #88	; 0x58
    e502:	680f      	ldr	r7, [r1, #0]
    e504:	f7fd ece4 	blx	bed0 <_ZN7android22QualcommCameraHardware22supportsSceneDetectionEv-0x534>
    e508:	4a21      	ldr	r2, [pc, #132]	; (e590 <_ZN7android22QualcommCameraHardware14setHistogramOnEv+0xe0>)
    e50a:	3f01      	subs	r7, #1
    e50c:	447a      	add	r2, pc
    e50e:	9200      	str	r2, [sp, #0]
    e510:	2203      	movs	r2, #3
    e512:	4606      	mov	r6, r0
    e514:	f507 6080 	add.w	r0, r7, #1024	; 0x400
    e518:	1d03      	adds	r3, r0, #4
    e51a:	4630      	mov	r0, r6
    e51c:	ea23 0107 	bic.w	r1, r3, r7
    e520:	f8d4 317c 	ldr.w	r3, [r4, #380]	; 0x17c
    e524:	f7ff ff8e 	bl	e444 <_ZN7android22QualcommCameraHardware10AshmemPoolC1EiiiPKc>
    e528:	4631      	mov	r1, r6
    e52a:	4628      	mov	r0, r5
    e52c:	f104 06e4 	add.w	r6, r4, #228	; 0xe4
    e530:	f7fe fffc 	bl	d52c <_ZN7android2spINS_22QualcommCameraHardware10AshmemPoolEEaSEPS2_>
    e534:	6da0      	ldr	r0, [r4, #88]	; 0x58
    e536:	f7fd ff57 	bl	c3e8 <_ZN7android22QualcommCameraHardware22supportsSceneDetectionEv-0x1c>
    e53a:	b9b0      	cbnz	r0, e56a <_ZN7android22QualcommCameraHardware14setHistogramOnEv+0xba>
    e53c:	4c15      	ldr	r4, [pc, #84]	; (e594 <_ZN7android22QualcommCameraHardware14setHistogramOnEv+0xe4>)
    e53e:	3006      	adds	r0, #6
    e540:	4a15      	ldr	r2, [pc, #84]	; (e598 <_ZN7android22QualcommCameraHardware14setHistogramOnEv+0xe8>)
    e542:	447c      	add	r4, pc
    e544:	447a      	add	r2, pc
    e546:	4621      	mov	r1, r4
    e548:	f7fd ec1a 	blx	bd80 <_ZN7android22QualcommCameraHardware22supportsSceneDetectionEv-0x684>
    e54c:	4628      	mov	r0, r5
    e54e:	f7fe ff03 	bl	d358 <_ZN7android2spINS_22QualcommCameraHardware10AshmemPoolEE5clearEv>
    e552:	4a12      	ldr	r2, [pc, #72]	; (e59c <_ZN7android22QualcommCameraHardware14setHistogramOnEv+0xec>)
    e554:	4621      	mov	r1, r4
    e556:	2006      	movs	r0, #6
    e558:	447a      	add	r2, pc
    e55a:	f7fd ec12 	blx	bd80 <_ZN7android22QualcommCameraHardware22supportsSceneDetectionEv-0x684>
    e55e:	4630      	mov	r0, r6
    e560:	f7fd ec56 	blx	be10 <_ZN7android22QualcommCameraHardware22supportsSceneDetectionEv-0x5f4>
    e564:	f04f 4000 	mov.w	r0, #2147483648	; 0x80000000
    e568:	e00c      	b.n	e584 <_ZN7android22QualcommCameraHardware14setHistogramOnEv+0xd4>
    e56a:	2101      	movs	r1, #1
    e56c:	4630      	mov	r0, r6
    e56e:	f844 1fd8 	str.w	r1, [r4, #216]!
    e572:	f7fd ec4e 	blx	be10 <_ZN7android22QualcommCameraHardware22supportsSceneDetectionEv-0x5f4>
    e576:	480a      	ldr	r0, [pc, #40]	; (e5a0 <_ZN7android22QualcommCameraHardware14setHistogramOnEv+0xf0>)
    e578:	4621      	mov	r1, r4
    e57a:	4478      	add	r0, pc
    e57c:	6ec3      	ldr	r3, [r0, #108]	; 0x6c
    e57e:	2002      	movs	r0, #2
    e580:	4798      	blx	r3
    e582:	2000      	movs	r0, #0
    e584:	bdfe      	pop	{r1, r2, r3, r4, r5, r6, r7, pc}
    e586:	bf00      	nop
    e588:	1632      	asrs	r2, r6, #24
    e58a:	0001      	lsls	r1, r0, #0
    e58c:	fd94 ffff 	ldc2	15, cr15, [r4, #1020]	; 0x3fc
    e590:	c52a      	stmia	r5!, {r1, r3, r5}
    e592:	0000      	lsls	r0, r0, #0
    e594:	be8a      	bkpt	0x008a
    e596:	0000      	lsls	r0, r0, #0
    e598:	c4f7      	stmia	r4!, {r0, r1, r2, r4, r5, r6, r7}
    e59a:	0000      	lsls	r0, r0, #0
    e59c:	c4f7      	stmia	r4!, {r0, r1, r2, r4, r5, r6, r7}
    e59e:	0000      	lsls	r0, r0, #0
    e5a0:	18b2      	adds	r2, r6, r2
    e5a2:	0001      	lsls	r1, r0, #0

0000e5a4 <_ZN7android22QualcommCameraHardware16initLiveSnapshotEii>:
    e5a4:	b573      	push	{r0, r1, r4, r5, r6, lr}
    e5a6:	6d43      	ldr	r3, [r0, #84]	; 0x54
    e5a8:	4604      	mov	r4, r0
    e5aa:	460d      	mov	r5, r1
    e5ac:	4616      	mov	r6, r2
    e5ae:	b11b      	cbz	r3, e5b8 <_ZN7android22QualcommCameraHardware16initLiveSnapshotEii+0x14>
    e5b0:	f100 0054 	add.w	r0, r0, #84	; 0x54
    e5b4:	f7fe fed0 	bl	d358 <_ZN7android2spINS_22QualcommCameraHardware10AshmemPoolEE5clearEv>
    e5b8:	eef7 0b08 	vmov.f64	d16, #120	; 0x78
    e5bc:	2024      	movs	r0, #36	; 0x24
    e5be:	fb05 f606 	mul.w	r6, r5, r6
    e5c2:	ee00 6a10 	vmov	s0, r6
    e5c6:	f104 0554 	add.w	r5, r4, #84	; 0x54
    e5ca:	eef8 1bc0 	vcvt.f64.s32	d17, s0
    e5ce:	ee61 0ba0 	vmul.f64	d16, d17, d16
    e5d2:	eefd 7be0 	vcvt.s32.f64	s15, d16
    e5d6:	edc4 7a5e 	vstr	s15, [r4, #376]	; 0x178
    e5da:	f7fd ec7a 	blx	bed0 <_ZN7android22QualcommCameraHardware22supportsSceneDetectionEv-0x534>
    e5de:	2201      	movs	r2, #1
    e5e0:	2300      	movs	r3, #0
    e5e2:	4606      	mov	r6, r0
    e5e4:	480f      	ldr	r0, [pc, #60]	; (e624 <_ZN7android22QualcommCameraHardware16initLiveSnapshotEii+0x80>)
    e5e6:	4478      	add	r0, pc
    e5e8:	9000      	str	r0, [sp, #0]
    e5ea:	4630      	mov	r0, r6
    e5ec:	f8d4 1178 	ldr.w	r1, [r4, #376]	; 0x178
    e5f0:	f7ff ff28 	bl	e444 <_ZN7android22QualcommCameraHardware10AshmemPoolC1EiiiPKc>
    e5f4:	4631      	mov	r1, r6
    e5f6:	4628      	mov	r0, r5
    e5f8:	f7fe ff98 	bl	d52c <_ZN7android2spINS_22QualcommCameraHardware10AshmemPoolEEaSEPS2_>
    e5fc:	6d60      	ldr	r0, [r4, #84]	; 0x54
    e5fe:	f7fd fef3 	bl	c3e8 <_ZN7android22QualcommCameraHardware22supportsSceneDetectionEv-0x1c>
    e602:	4604      	mov	r4, r0
    e604:	b108      	cbz	r0, e60a <_ZN7android22QualcommCameraHardware16initLiveSnapshotEii+0x66>
    e606:	2001      	movs	r0, #1
    e608:	e00a      	b.n	e620 <_ZN7android22QualcommCameraHardware16initLiveSnapshotEii+0x7c>
    e60a:	4628      	mov	r0, r5
    e60c:	f7fe fea4 	bl	d358 <_ZN7android2spINS_22QualcommCameraHardware10AshmemPoolEE5clearEv>
    e610:	4905      	ldr	r1, [pc, #20]	; (e628 <_ZN7android22QualcommCameraHardware16initLiveSnapshotEii+0x84>)
    e612:	4a06      	ldr	r2, [pc, #24]	; (e62c <_ZN7android22QualcommCameraHardware16initLiveSnapshotEii+0x88>)
    e614:	2006      	movs	r0, #6
    e616:	4479      	add	r1, pc
    e618:	447a      	add	r2, pc
    e61a:	f7fd ebb2 	blx	bd80 <_ZN7android22QualcommCameraHardware22supportsSceneDetectionEv-0x684>
    e61e:	4620      	mov	r0, r4
    e620:	bd7c      	pop	{r2, r3, r4, r5, r6, pc}
    e622:	bf00      	nop
    e624:	c498      	stmia	r4!, {r3, r4, r7}
    e626:	0000      	lsls	r0, r0, #0
    e628:	bdb6      	pop	{r1, r2, r4, r5, r7, pc}
    e62a:	0000      	lsls	r0, r0, #0
    e62c:	c46b      	stmia	r4!, {r0, r1, r3, r5, r6}
	...

0000e630 <_ZN7android22QualcommCameraHardware10AshmemPoolC2EiiiPKc>:
    e630:	e92d 43f7 	stmdb	sp!, {r0, r1, r2, r4, r5, r6, r7, r8, r9, lr}
    e634:	4605      	mov	r5, r0
    e636:	980a      	ldr	r0, [sp, #40]	; 0x28
    e638:	4690      	mov	r8, r2
    e63a:	4c15      	ldr	r4, [pc, #84]	; (e690 <_ZN7android22QualcommCameraHardware10AshmemPoolC2EiiiPKc+0x60>)
    e63c:	460f      	mov	r7, r1
    e63e:	f8df 9054 	ldr.w	r9, [pc, #84]	; e694 <_ZN7android22QualcommCameraHardware10AshmemPoolC2EiiiPKc+0x64>
    e642:	9000      	str	r0, [sp, #0]
    e644:	4628      	mov	r0, r5
    e646:	f7ff fecf 	bl	e3e8 <_ZN7android22QualcommCameraHardware7MemPoolC2EiiiPKc>
    e64a:	447c      	add	r4, pc
    e64c:	4912      	ldr	r1, [pc, #72]	; (e698 <_ZN7android22QualcommCameraHardware10AshmemPoolC2EiiiPKc+0x68>)
    e64e:	f854 6009 	ldr.w	r6, [r4, r9]
    e652:	5860      	ldr	r0, [r4, r1]
    e654:	f116 0208 	adds.w	r2, r6, #8
    e658:	462e      	mov	r6, r5
    e65a:	f846 2b18 	str.w	r2, [r6], #24
    e65e:	6803      	ldr	r3, [r0, #0]
    e660:	2034      	movs	r0, #52	; 0x34
    e662:	f103 39ff 	add.w	r9, r3, #4294967295
    e666:	f7fd ec34 	blx	bed0 <_ZN7android22QualcommCameraHardware22supportsSceneDetectionEv-0x534>
    e66a:	2200      	movs	r2, #0
    e66c:	fb07 9708 	mla	r7, r7, r8, r9
    e670:	4613      	mov	r3, r2
    e672:	ea27 0109 	bic.w	r1, r7, r9
    e676:	4604      	mov	r4, r0
    e678:	f7fd ec42 	blx	bf00 <_ZN7android22QualcommCameraHardware22supportsSceneDetectionEv-0x504>
    e67c:	4621      	mov	r1, r4
    e67e:	4630      	mov	r0, r6
    e680:	f7fe fd14 	bl	d0ac <_ZN7android2spINS_14MemoryHeapBaseEEaSEPS1_>
    e684:	4628      	mov	r0, r5
    e686:	f7ff fd77 	bl	e178 <_ZN7android22QualcommCameraHardware7MemPool22completeInitializationEv>
    e68a:	4628      	mov	r0, r5
    e68c:	e8bd 83fe 	ldmia.w	sp!, {r1, r2, r3, r4, r5, r6, r7, r8, r9, pc}
    e690:	14ae      	asrs	r6, r5, #18
    e692:	0001      	lsls	r1, r0, #0
    e694:	fd88 ffff 	stc2	15, cr15, [r8, #1020]	; 0x3fc
    e698:	fd94 ffff 	ldc2	15, cr15, [r4, #1020]	; 0x3fc

0000e69c <_ZN7android22QualcommCameraHardware10MMCameraDLC1Ev>:
    e69c:	b570      	push	{r4, r5, r6, lr}
    e69e:	4d09      	ldr	r5, [pc, #36]	; (e6c4 <_ZN7android22QualcommCameraHardware10MMCameraDLC1Ev+0x28>)
    e6a0:	4604      	mov	r4, r0
    e6a2:	f7fd ec28 	blx	bef4 <_ZN7android22QualcommCameraHardware22supportsSceneDetectionEv-0x510>
    e6a6:	4908      	ldr	r1, [pc, #32]	; (e6c8 <_ZN7android22QualcommCameraHardware10MMCameraDLC1Ev+0x2c>)
    e6a8:	447d      	add	r5, pc
    e6aa:	5868      	ldr	r0, [r5, r1]
    e6ac:	2100      	movs	r1, #0
    e6ae:	60a1      	str	r1, [r4, #8]
    e6b0:	f110 0308 	adds.w	r3, r0, #8
    e6b4:	4805      	ldr	r0, [pc, #20]	; (e6cc <_ZN7android22QualcommCameraHardware10MMCameraDLC1Ev+0x30>)
    e6b6:	6023      	str	r3, [r4, #0]
    e6b8:	4478      	add	r0, pc
    e6ba:	f7fd eb86 	blx	bdc8 <_ZN7android22QualcommCameraHardware22supportsSceneDetectionEv-0x63c>
    e6be:	60a0      	str	r0, [r4, #8]
    e6c0:	4620      	mov	r0, r4
    e6c2:	bd70      	pop	{r4, r5, r6, pc}
    e6c4:	1450      	asrs	r0, r2, #17
    e6c6:	0001      	lsls	r1, r0, #0
    e6c8:	fd74 ffff 	ldc2l	15, cr15, [r4, #-1020]!	; 0xfffffc04
    e6cc:	be44      	bkpt	0x0044
	...

0000e6d0 <_ZN7android22QualcommCameraHardware10MMCameraDLC2Ev>:
    e6d0:	b570      	push	{r4, r5, r6, lr}
    e6d2:	4d09      	ldr	r5, [pc, #36]	; (e6f8 <_ZN7android22QualcommCameraHardware10MMCameraDLC2Ev+0x28>)
    e6d4:	4604      	mov	r4, r0
    e6d6:	f7fd ec0e 	blx	bef4 <_ZN7android22QualcommCameraHardware22supportsSceneDetectionEv-0x510>
    e6da:	4908      	ldr	r1, [pc, #32]	; (e6fc <_ZN7android22QualcommCameraHardware10MMCameraDLC2Ev+0x2c>)
    e6dc:	447d      	add	r5, pc
    e6de:	5868      	ldr	r0, [r5, r1]
    e6e0:	2100      	movs	r1, #0
    e6e2:	60a1      	str	r1, [r4, #8]
    e6e4:	f110 0308 	adds.w	r3, r0, #8
    e6e8:	4805      	ldr	r0, [pc, #20]	; (e700 <_ZN7android22QualcommCameraHardware10MMCameraDLC2Ev+0x30>)
    e6ea:	6023      	str	r3, [r4, #0]
    e6ec:	4478      	add	r0, pc
    e6ee:	f7fd eb6c 	blx	bdc8 <_ZN7android22QualcommCameraHardware22supportsSceneDetectionEv-0x63c>
    e6f2:	60a0      	str	r0, [r4, #8]
    e6f4:	4620      	mov	r0, r4
    e6f6:	bd70      	pop	{r4, r5, r6, pc}
    e6f8:	141c      	asrs	r4, r3, #16
    e6fa:	0001      	lsls	r1, r0, #0
    e6fc:	fd74 ffff 	ldc2l	15, cr15, [r4, #-1020]!	; 0xfffffc04
    e700:	be10      	bkpt	0x0010
	...

0000e704 <_ZN7android22QualcommCameraHardware11getInstanceEv>:
    e704:	4b19      	ldr	r3, [pc, #100]	; (e76c <_ZN7android22QualcommCameraHardware11getInstanceEv+0x68>)
    e706:	b537      	push	{r0, r1, r2, r4, r5, lr}
    e708:	4a19      	ldr	r2, [pc, #100]	; (e770 <_ZN7android22QualcommCameraHardware11getInstanceEv+0x6c>)
    e70a:	447b      	add	r3, pc
    e70c:	4605      	mov	r5, r0
    e70e:	589b      	ldr	r3, [r3, r2]
    e710:	681c      	ldr	r4, [r3, #0]
    e712:	6858      	ldr	r0, [r3, #4]
    e714:	b12c      	cbz	r4, e722 <_ZN7android22QualcommCameraHardware11getInstanceEv+0x1e>
    e716:	4669      	mov	r1, sp
    e718:	f7fd ebf8 	blx	bf0c <_ZN7android22QualcommCameraHardware22supportsSceneDetectionEv-0x4f8>
    e71c:	2800      	cmp	r0, #0
    e71e:	bf08      	it	eq
    e720:	2400      	moveq	r4, #0
    e722:	9400      	str	r4, [sp, #0]
    e724:	9401      	str	r4, [sp, #4]
    e726:	b134      	cbz	r4, e736 <_ZN7android22QualcommCameraHardware11getInstanceEv+0x32>
    e728:	6821      	ldr	r1, [r4, #0]
    e72a:	f851 0c0c 	ldr.w	r0, [r1, #-12]
    e72e:	a901      	add	r1, sp, #4
    e730:	1820      	adds	r0, r4, r0
    e732:	f7fd eb7a 	blx	be28 <_ZN7android22QualcommCameraHardware22supportsSceneDetectionEv-0x5dc>
    e736:	4668      	mov	r0, sp
    e738:	f7fe feea 	bl	d510 <_ZN7android2spINS_22QualcommCameraHardwareEED1Ev>
    e73c:	9b01      	ldr	r3, [sp, #4]
    e73e:	b143      	cbz	r3, e752 <_ZN7android22QualcommCameraHardware11getInstanceEv+0x4e>
    e740:	602b      	str	r3, [r5, #0]
    e742:	4629      	mov	r1, r5
    e744:	681a      	ldr	r2, [r3, #0]
    e746:	f852 0c0c 	ldr.w	r0, [r2, #-12]
    e74a:	1818      	adds	r0, r3, r0
    e74c:	f7fd eb6c 	blx	be28 <_ZN7android22QualcommCameraHardware22supportsSceneDetectionEv-0x5dc>
    e750:	e000      	b.n	e754 <_ZN7android22QualcommCameraHardware11getInstanceEv+0x50>
    e752:	602b      	str	r3, [r5, #0]
    e754:	9b01      	ldr	r3, [sp, #4]
    e756:	b133      	cbz	r3, e766 <_ZN7android22QualcommCameraHardware11getInstanceEv+0x62>
    e758:	6818      	ldr	r0, [r3, #0]
    e75a:	f850 1c0c 	ldr.w	r1, [r0, #-12]
    e75e:	1858      	adds	r0, r3, r1
    e760:	a901      	add	r1, sp, #4
    e762:	f7fd eb68 	blx	be34 <_ZN7android22QualcommCameraHardware22supportsSceneDetectionEv-0x5d0>
    e766:	4628      	mov	r0, r5
    e768:	bd3e      	pop	{r1, r2, r3, r4, r5, pc}
    e76a:	bf00      	nop
    e76c:	13ee      	asrs	r6, r5, #15
    e76e:	0001      	lsls	r1, r0, #0
    e770:	fd98 ffff 	ldc2	15, cr15, [r8, #1020]	; 0x3fc
    e774:	b513      	push	{r0, r1, r4, lr}
    e776:	4604      	mov	r4, r0
    e778:	a801      	add	r0, sp, #4
    e77a:	f7ff ffc3 	bl	e704 <_ZN7android22QualcommCameraHardware11getInstanceEv>
    e77e:	9801      	ldr	r0, [sp, #4]
    e780:	b110      	cbz	r0, e788 <_ZN7android22QualcommCameraHardware11getInstanceEv+0x84>
    e782:	4621      	mov	r1, r4
    e784:	f7fd fed2 	bl	c52c <_ZN7android22QualcommCameraHardware24receive_autofocus_switchE16cam_afCtrlMode_t>
    e788:	a801      	add	r0, sp, #4
    e78a:	f7fe fec1 	bl	d510 <_ZN7android2spINS_22QualcommCameraHardwareEED1Ev>
    e78e:	bd1c      	pop	{r2, r3, r4, pc}
    e790:	b507      	push	{r0, r1, r2, lr}
    e792:	a801      	add	r0, sp, #4
    e794:	f7ff ffb6 	bl	e704 <_ZN7android22QualcommCameraHardware11getInstanceEv>
    e798:	9801      	ldr	r0, [sp, #4]
    e79a:	b118      	cbz	r0, e7a4 <_ZN7android22QualcommCameraHardware11getInstanceEv+0xa0>
    e79c:	2100      	movs	r1, #0
    e79e:	2201      	movs	r2, #1
    e7a0:	f7fe fd88 	bl	d2b4 <_ZN7android22QualcommCameraHardware13notifyShutterEP13common_crop_tb>
    e7a4:	a801      	add	r0, sp, #4
    e7a6:	f7fe feb3 	bl	d510 <_ZN7android2spINS_22QualcommCameraHardwareEED1Ev>
    e7aa:	bd0e      	pop	{r1, r2, r3, pc}
    e7ac:	b513      	push	{r0, r1, r4, lr}
    e7ae:	4604      	mov	r4, r0
    e7b0:	a801      	add	r0, sp, #4
    e7b2:	f7ff ffa7 	bl	e704 <_ZN7android22QualcommCameraHardware11getInstanceEv>
    e7b6:	9801      	ldr	r0, [sp, #4]
    e7b8:	b120      	cbz	r0, e7c4 <_ZN7android22QualcommCameraHardware11getInstanceEv+0xc0>
    e7ba:	3c11      	subs	r4, #17
    e7bc:	2c01      	cmp	r4, #1
    e7be:	d801      	bhi.n	e7c4 <_ZN7android22QualcommCameraHardware11getInstanceEv+0xc0>
    e7c0:	f7fe fa54 	bl	cc6c <_ZN7android22QualcommCameraHardware30receive_camframe_error_timeoutEv>
    e7c4:	a801      	add	r0, sp, #4
    e7c6:	f7fe fea3 	bl	d510 <_ZN7android2spINS_22QualcommCameraHardwareEED1Ev>
    e7ca:	bd1c      	pop	{r2, r3, r4, pc}
    e7cc:	b537      	push	{r0, r1, r2, r4, r5, lr}
    e7ce:	4605      	mov	r5, r0
    e7d0:	a801      	add	r0, sp, #4
    e7d2:	460c      	mov	r4, r1
    e7d4:	f7ff ff96 	bl	e704 <_ZN7android22QualcommCameraHardware11getInstanceEv>
    e7d8:	9801      	ldr	r0, [sp, #4]
    e7da:	b118      	cbz	r0, e7e4 <_ZN7android22QualcommCameraHardware11getInstanceEv+0xe0>
    e7dc:	4629      	mov	r1, r5
    e7de:	4622      	mov	r2, r4
    e7e0:	f7fe fee0 	bl	d5a4 <_ZN7android22QualcommCameraHardware18receiveCameraStatsE13camstats_typeP29camera_preview_histogram_info>
    e7e4:	a801      	add	r0, sp, #4
    e7e6:	f7fe fe93 	bl	d510 <_ZN7android2spINS_22QualcommCameraHardwareEED1Ev>
    e7ea:	bd3e      	pop	{r1, r2, r3, r4, r5, pc}

0000e7ec <_ZN7android10openCameraEPv>:
    e7ec:	e92d 41f0 	stmdb	sp!, {r4, r5, r6, r7, r8, lr}
    e7f0:	4f4e      	ldr	r7, [pc, #312]	; (e92c <_ZN7android10openCameraEPv+0x140>)
    e7f2:	4b4f      	ldr	r3, [pc, #316]	; (e930 <_ZN7android10openCameraEPv+0x144>)
    e7f4:	b088      	sub	sp, #32
    e7f6:	447f      	add	r7, pc
    e7f8:	58fc      	ldr	r4, [r7, r3]
    e7fa:	6820      	ldr	r0, [r4, #0]
    e7fc:	b950      	cbnz	r0, e814 <_ZN7android10openCameraEPv+0x28>
    e7fe:	f7fd eaea 	blx	bdd4 <_ZN7android22QualcommCameraHardware22supportsSceneDetectionEv-0x630>
    e802:	494c      	ldr	r1, [pc, #304]	; (e934 <_ZN7android10openCameraEPv+0x148>)
    e804:	4a4c      	ldr	r2, [pc, #304]	; (e938 <_ZN7android10openCameraEPv+0x14c>)
    e806:	4479      	add	r1, pc
    e808:	447a      	add	r2, pc
    e80a:	4603      	mov	r3, r0
    e80c:	2006      	movs	r0, #6
    e80e:	f7fd eab8 	blx	bd80 <_ZN7android22QualcommCameraHardware22supportsSceneDetectionEv-0x684>
    e812:	e086      	b.n	e922 <_ZN7android10openCameraEPv+0x136>
    e814:	4949      	ldr	r1, [pc, #292]	; (e93c <_ZN7android10openCameraEPv+0x150>)
    e816:	4e4a      	ldr	r6, [pc, #296]	; (e940 <_ZN7android10openCameraEPv+0x154>)
    e818:	4479      	add	r1, pc
    e81a:	4d4a      	ldr	r5, [pc, #296]	; (e944 <_ZN7android10openCameraEPv+0x158>)
    e81c:	f7fd eae0 	blx	bde0 <_ZN7android22QualcommCameraHardware22supportsSceneDetectionEv-0x624>
    e820:	4949      	ldr	r1, [pc, #292]	; (e948 <_ZN7android10openCameraEPv+0x15c>)
    e822:	f857 8006 	ldr.w	r8, [r7, r6]
    e826:	4479      	add	r1, pc
    e828:	f8c8 0000 	str.w	r0, [r8]
    e82c:	6820      	ldr	r0, [r4, #0]
    e82e:	f7fd ead8 	blx	bde0 <_ZN7android22QualcommCameraHardware22supportsSceneDetectionEv-0x624>
    e832:	597e      	ldr	r6, [r7, r5]
    e834:	4945      	ldr	r1, [pc, #276]	; (e94c <_ZN7android10openCameraEPv+0x160>)
    e836:	4479      	add	r1, pc
    e838:	6030      	str	r0, [r6, #0]
    e83a:	6820      	ldr	r0, [r4, #0]
    e83c:	f7fd ead0 	blx	bde0 <_ZN7android22QualcommCameraHardware22supportsSceneDetectionEv-0x624>
    e840:	4943      	ldr	r1, [pc, #268]	; (e950 <_ZN7android10openCameraEPv+0x164>)
    e842:	4a44      	ldr	r2, [pc, #272]	; (e954 <_ZN7android10openCameraEPv+0x168>)
    e844:	2300      	movs	r3, #0
    e846:	4c44      	ldr	r4, [pc, #272]	; (e958 <_ZN7android10openCameraEPv+0x16c>)
    e848:	587d      	ldr	r5, [r7, r1]
    e84a:	f8df c110 	ldr.w	ip, [pc, #272]	; e95c <_ZN7android10openCameraEPv+0x170>
    e84e:	447c      	add	r4, pc
    e850:	58b9      	ldr	r1, [r7, r2]
    e852:	f857 200c 	ldr.w	r2, [r7, ip]
    e856:	6028      	str	r0, [r5, #0]
    e858:	f104 0068 	add.w	r0, r4, #104	; 0x68
    e85c:	f8d8 7000 	ldr.w	r7, [r8]
    e860:	47b8      	blx	r7
    e862:	b120      	cbz	r0, e86e <_ZN7android10openCameraEPv+0x82>
    e864:	493e      	ldr	r1, [pc, #248]	; (e960 <_ZN7android10openCameraEPv+0x174>)
    e866:	4a3f      	ldr	r2, [pc, #252]	; (e964 <_ZN7android10openCameraEPv+0x178>)
    e868:	4479      	add	r1, pc
    e86a:	447a      	add	r2, pc
    e86c:	e024      	b.n	e8b8 <_ZN7android10openCameraEPv+0xcc>
    e86e:	f8d4 00dc 	ldr.w	r0, [r4, #220]	; 0xdc
    e872:	a908      	add	r1, sp, #32
    e874:	6ee3      	ldr	r3, [r4, #108]	; 0x6c
    e876:	f801 0d01 	strb.w	r0, [r1, #-1]!
    e87a:	2021      	movs	r0, #33	; 0x21
    e87c:	4798      	blx	r3
    e87e:	b120      	cbz	r0, e88a <_ZN7android10openCameraEPv+0x9e>
    e880:	4939      	ldr	r1, [pc, #228]	; (e968 <_ZN7android10openCameraEPv+0x17c>)
    e882:	4a3a      	ldr	r2, [pc, #232]	; (e96c <_ZN7android10openCameraEPv+0x180>)
    e884:	4479      	add	r1, pc
    e886:	447a      	add	r2, pc
    e888:	e00b      	b.n	e8a2 <_ZN7android10openCameraEPv+0xb6>
    e88a:	6823      	ldr	r3, [r4, #0]
    e88c:	a908      	add	r1, sp, #32
    e88e:	6ee2      	ldr	r2, [r4, #108]	; 0x6c
    e890:	201f      	movs	r0, #31
    e892:	f841 3d08 	str.w	r3, [r1, #-8]!
    e896:	4790      	blx	r2
    e898:	b138      	cbz	r0, e8aa <_ZN7android10openCameraEPv+0xbe>
    e89a:	4935      	ldr	r1, [pc, #212]	; (e970 <_ZN7android10openCameraEPv+0x184>)
    e89c:	4a35      	ldr	r2, [pc, #212]	; (e974 <_ZN7android10openCameraEPv+0x188>)
    e89e:	4479      	add	r1, pc
    e8a0:	447a      	add	r2, pc
    e8a2:	2006      	movs	r0, #6
    e8a4:	f7fd ea6c 	blx	bd80 <_ZN7android22QualcommCameraHardware22supportsSceneDetectionEv-0x684>
    e8a8:	e01f      	b.n	e8ea <_ZN7android10openCameraEPv+0xfe>
    e8aa:	6831      	ldr	r1, [r6, #0]
    e8ac:	4788      	blx	r1
    e8ae:	b138      	cbz	r0, e8c0 <_ZN7android10openCameraEPv+0xd4>
    e8b0:	4931      	ldr	r1, [pc, #196]	; (e978 <_ZN7android10openCameraEPv+0x18c>)
    e8b2:	4a32      	ldr	r2, [pc, #200]	; (e97c <_ZN7android10openCameraEPv+0x190>)
    e8b4:	4479      	add	r1, pc
    e8b6:	447a      	add	r2, pc
    e8b8:	2006      	movs	r0, #6
    e8ba:	f7fd ea62 	blx	bd80 <_ZN7android22QualcommCameraHardware22supportsSceneDetectionEv-0x684>
    e8be:	e030      	b.n	e922 <_ZN7android10openCameraEPv+0x136>
    e8c0:	9b06      	ldr	r3, [sp, #24]
    e8c2:	2b02      	cmp	r3, #2
    e8c4:	d12d      	bne.n	e922 <_ZN7android10openCameraEPv+0x136>
    e8c6:	a908      	add	r1, sp, #32
    e8c8:	1e58      	subs	r0, r3, #1
    e8ca:	6f22      	ldr	r2, [r4, #112]	; 0x70
    e8cc:	f841 0d14 	str.w	r0, [r1, #-20]!
    e8d0:	2020      	movs	r0, #32
    e8d2:	4790      	blx	r2
    e8d4:	b160      	cbz	r0, e8f0 <_ZN7android10openCameraEPv+0x104>
    e8d6:	4b2a      	ldr	r3, [pc, #168]	; (e980 <_ZN7android10openCameraEPv+0x194>)
    e8d8:	2006      	movs	r0, #6
    e8da:	492a      	ldr	r1, [pc, #168]	; (e984 <_ZN7android10openCameraEPv+0x198>)
    e8dc:	4a2a      	ldr	r2, [pc, #168]	; (e988 <_ZN7android10openCameraEPv+0x19c>)
    e8de:	447b      	add	r3, pc
    e8e0:	4479      	add	r1, pc
    e8e2:	3394      	adds	r3, #148	; 0x94
    e8e4:	447a      	add	r2, pc
    e8e6:	f7fd ea4c 	blx	bd80 <_ZN7android22QualcommCameraHardware22supportsSceneDetectionEv-0x684>
    e8ea:	6829      	ldr	r1, [r5, #0]
    e8ec:	4788      	blx	r1
    e8ee:	e018      	b.n	e922 <_ZN7android10openCameraEPv+0x136>
    e8f0:	a805      	add	r0, sp, #20
    e8f2:	f7ff ff07 	bl	e704 <_ZN7android22QualcommCameraHardware11getInstanceEv>
    e8f6:	9b05      	ldr	r3, [sp, #20]
    e8f8:	b183      	cbz	r3, e91c <_ZN7android10openCameraEPv+0x130>
    e8fa:	9a04      	ldr	r2, [sp, #16]
    e8fc:	4923      	ldr	r1, [pc, #140]	; (e98c <_ZN7android10openCameraEPv+0x1a0>)
    e8fe:	f8c3 2460 	str.w	r2, [r3, #1120]	; 0x460
    e902:	4479      	add	r1, pc
    e904:	9805      	ldr	r0, [sp, #20]
    e906:	4b22      	ldr	r3, [pc, #136]	; (e990 <_ZN7android10openCameraEPv+0x1a4>)
    e908:	4a22      	ldr	r2, [pc, #136]	; (e994 <_ZN7android10openCameraEPv+0x1a8>)
    e90a:	f8d0 0460 	ldr.w	r0, [r0, #1120]	; 0x460
    e90e:	447b      	add	r3, pc
    e910:	447a      	add	r2, pc
    e912:	3394      	adds	r3, #148	; 0x94
    e914:	9000      	str	r0, [sp, #0]
    e916:	2004      	movs	r0, #4
    e918:	f7fd ea32 	blx	bd80 <_ZN7android22QualcommCameraHardware22supportsSceneDetectionEv-0x684>
    e91c:	a805      	add	r0, sp, #20
    e91e:	f7fe fdf7 	bl	d510 <_ZN7android2spINS_22QualcommCameraHardwareEED1Ev>
    e922:	2000      	movs	r0, #0
    e924:	b008      	add	sp, #32
    e926:	e8bd 81f0 	ldmia.w	sp!, {r4, r5, r6, r7, r8, pc}
    e92a:	bf00      	nop
    e92c:	1302      	asrs	r2, r0, #12
    e92e:	0001      	lsls	r1, r0, #0
    e930:	fd9c ffff 	ldc2	15, cr15, [ip, #1020]	; 0x3fc
    e934:	bbc6      	cbnz	r6, e9a8 <_ZN7android22QualcommCameraHardware11setZslParamERKNS_16CameraParametersE+0x10>
    e936:	0000      	lsls	r0, r0, #0
    e938:	bd2c      	pop	{r2, r3, r5, pc}
    e93a:	0000      	lsls	r0, r0, #0
    e93c:	c2a4      	stmia	r2!, {r2, r5, r7}
    e93e:	0000      	lsls	r0, r0, #0
    e940:	fda0 ffff 	stc2	15, cr15, [r0, #1020]!	; 0x3fc
    e944:	fda4 ffff 	stc2	15, cr15, [r4, #1020]!	; 0x3fc
    e948:	c2a5      	stmia	r2!, {r0, r2, r5, r7}
    e94a:	0000      	lsls	r0, r0, #0
    e94c:	c2a4      	stmia	r2!, {r2, r5, r7}
    e94e:	0000      	lsls	r0, r0, #0
    e950:	fda8 ffff 	stc2	15, cr15, [r8, #1020]!	; 0x3fc
    e954:	fdac ffff 	stc2	15, cr15, [ip, #1020]!	; 0x3fc
    e958:	15de      	asrs	r6, r3, #23
    e95a:	0001      	lsls	r1, r0, #0
    e95c:	fd68 ffff 	stc2l	15, cr15, [r8, #-1020]!	; 0xfffffc04
    e960:	bb64      	cbnz	r4, e9bc <_ZN7android22QualcommCameraHardware11setZslParamERKNS_16CameraParametersE+0x24>
    e962:	0000      	lsls	r0, r0, #0
    e964:	c281      	stmia	r2!, {r0, r7}
    e966:	0000      	lsls	r0, r0, #0
    e968:	bb48      	cbnz	r0, e9be <_ZN7android22QualcommCameraHardware11setZslParamERKNS_16CameraParametersE+0x26>
    e96a:	0000      	lsls	r0, r0, #0
    e96c:	c289      	stmia	r2!, {r0, r3, r7}
    e96e:	0000      	lsls	r0, r0, #0
    e970:	bb2e      	cbnz	r6, e9be <_ZN7android22QualcommCameraHardware11setZslParamERKNS_16CameraParametersE+0x26>
    e972:	0000      	lsls	r0, r0, #0
    e974:	c288      	stmia	r2!, {r3, r7}
    e976:	0000      	lsls	r0, r0, #0
    e978:	bb18      	cbnz	r0, e9c2 <_ZN7android22QualcommCameraHardware11setZslParamERKNS_16CameraParametersE+0x2a>
    e97a:	0000      	lsls	r0, r0, #0
    e97c:	c298      	stmia	r2!, {r3, r4, r7}
    e97e:	0000      	lsls	r0, r0, #0
    e980:	b83a      	undefined instruction 0xb83a
    e982:	0000      	lsls	r0, r0, #0
    e984:	baec      	revsh	r4, r5
    e986:	0000      	lsls	r0, r0, #0
    e988:	c28e      	stmia	r2!, {r1, r2, r3, r7}
    e98a:	0000      	lsls	r0, r0, #0
    e98c:	baca      	revsh	r2, r1
    e98e:	0000      	lsls	r0, r0, #0
    e990:	b80a      	undefined instruction 0xb80a
    e992:	0000      	lsls	r0, r0, #0
    e994:	c27b      	stmia	r2!, {r0, r1, r3, r4, r5, r6}
	...

0000e998 <_ZN7android22QualcommCameraHardware11setZslParamERKNS_16CameraParametersE>:
    e998:	b510      	push	{r4, lr}
    e99a:	f8d0 3454 	ldr.w	r3, [r0, #1108]	; 0x454
    e99e:	4604      	mov	r4, r0
    e9a0:	b1a3      	cbz	r3, e9cc <_ZN7android22QualcommCameraHardware11setZslParamERKNS_16CameraParametersE+0x34>
    e9a2:	4a0b      	ldr	r2, [pc, #44]	; (e9d0 <_ZN7android22QualcommCameraHardware11setZslParamERKNS_16CameraParametersE+0x38>)
    e9a4:	4608      	mov	r0, r1
    e9a6:	447a      	add	r2, pc
    e9a8:	4611      	mov	r1, r2
    e9aa:	f7fd eab6 	blx	bf18 <_ZN7android22QualcommCameraHardware22supportsSceneDetectionEv-0x4ec>
    e9ae:	b158      	cbz	r0, e9c8 <_ZN7android22QualcommCameraHardware11setZslParamERKNS_16CameraParametersE+0x30>
    e9b0:	4908      	ldr	r1, [pc, #32]	; (e9d4 <_ZN7android22QualcommCameraHardware11setZslParamERKNS_16CameraParametersE+0x3c>)
    e9b2:	2208      	movs	r2, #8
    e9b4:	4479      	add	r1, pc
    e9b6:	f7fd e9f6 	blx	bda4 <_ZN7android22QualcommCameraHardware22supportsSceneDetectionEv-0x660>
    e9ba:	b908      	cbnz	r0, e9c0 <_ZN7android22QualcommCameraHardware11setZslParamERKNS_16CameraParametersE+0x28>
    e9bc:	2301      	movs	r3, #1
    e9be:	e000      	b.n	e9c2 <_ZN7android22QualcommCameraHardware11setZslParamERKNS_16CameraParametersE+0x2a>
    e9c0:	2300      	movs	r3, #0
    e9c2:	f8c4 3458 	str.w	r3, [r4, #1112]	; 0x458
    e9c6:	e001      	b.n	e9cc <_ZN7android22QualcommCameraHardware11setZslParamERKNS_16CameraParametersE+0x34>
    e9c8:	f8c4 0458 	str.w	r0, [r4, #1112]	; 0x458
    e9cc:	2000      	movs	r0, #0
    e9ce:	bd10      	pop	{r4, pc}
    e9d0:	c200      	stmia	r2!, {}
    e9d2:	0000      	lsls	r0, r0, #0
    e9d4:	c211      	stmia	r2!, {r0, r4}
	...

0000e9d8 <_ZN7android22QualcommCameraHardware6setDISEv>:
    e9d8:	b57f      	push	{r0, r1, r2, r3, r4, r5, r6, lr}
    e9da:	4604      	mov	r4, r0
    e9dc:	4b25      	ldr	r3, [pc, #148]	; (ea74 <_ZN7android22QualcommCameraHardware6setDISEv+0x9c>)
    e9de:	f8d0 0424 	ldr.w	r0, [r0, #1060]	; 0x424
    e9e2:	f8d4 5420 	ldr.w	r5, [r4, #1056]	; 0x420
    e9e6:	447b      	add	r3, pc
    e9e8:	681b      	ldr	r3, [r3, #0]
    e9ea:	4e23      	ldr	r6, [pc, #140]	; (ea78 <_ZN7android22QualcommCameraHardware6setDISEv+0xa0>)
    e9ec:	2b06      	cmp	r3, #6
    e9ee:	447e      	add	r6, pc
    e9f0:	fb05 f500 	mul.w	r5, r5, r0
    e9f4:	d003      	beq.n	e9fe <_ZN7android22QualcommCameraHardware6setDISEv+0x26>
    e9f6:	1ce9      	adds	r1, r5, #3
    e9f8:	f021 0503 	bic.w	r5, r1, #3
    e9fc:	e007      	b.n	ea0e <_ZN7android22QualcommCameraHardware6setDISEv+0x36>
    e9fe:	f505 65fe 	add.w	r5, r5, #2032	; 0x7f0
    ea02:	f115 030f 	adds.w	r3, r5, #15
    ea06:	f423 62fe 	bic.w	r2, r3, #2032	; 0x7f0
    ea0a:	f022 050f 	bic.w	r5, r2, #15
    ea0e:	f894 0428 	ldrb.w	r0, [r4, #1064]	; 0x428
    ea12:	f8df c068 	ldr.w	ip, [pc, #104]	; ea7c <_ZN7android22QualcommCameraHardware6setDISEv+0xa4>
    ea16:	9000      	str	r0, [sp, #0]
    ea18:	f104 0014 	add.w	r0, r4, #20
    ea1c:	f856 100c 	ldr.w	r1, [r6, ip]
    ea20:	f7fd ea7a 	blx	bf18 <_ZN7android22QualcommCameraHardware22supportsSceneDetectionEv-0x4ec>
    ea24:	b190      	cbz	r0, ea4c <_ZN7android22QualcommCameraHardware6setDISEv+0x74>
    ea26:	f8df e058 	ldr.w	lr, [pc, #88]	; ea80 <_ZN7android22QualcommCameraHardware6setDISEv+0xa8>
    ea2a:	f856 100e 	ldr.w	r1, [r6, lr]
    ea2e:	f7fd ea32 	blx	be94 <_ZN7android22QualcommCameraHardware22supportsSceneDetectionEv-0x570>
    ea32:	b158      	cbz	r0, ea4c <_ZN7android22QualcommCameraHardware6setDISEv+0x74>
    ea34:	4b13      	ldr	r3, [pc, #76]	; (ea84 <_ZN7android22QualcommCameraHardware6setDISEv+0xac>)
    ea36:	2004      	movs	r0, #4
    ea38:	4913      	ldr	r1, [pc, #76]	; (ea88 <_ZN7android22QualcommCameraHardware6setDISEv+0xb0>)
    ea3a:	4a14      	ldr	r2, [pc, #80]	; (ea8c <_ZN7android22QualcommCameraHardware6setDISEv+0xb4>)
    ea3c:	447b      	add	r3, pc
    ea3e:	4479      	add	r1, pc
    ea40:	33b8      	adds	r3, #184	; 0xb8
    ea42:	447a      	add	r2, pc
    ea44:	f7fd e99c 	blx	bd80 <_ZN7android22QualcommCameraHardware22supportsSceneDetectionEv-0x684>
    ea48:	2100      	movs	r1, #0
    ea4a:	9100      	str	r1, [sp, #0]
    ea4c:	f8d4 0420 	ldr.w	r0, [r4, #1056]	; 0x420
    ea50:	211b      	movs	r1, #27
    ea52:	f8d4 2424 	ldr.w	r2, [r4, #1060]	; 0x424
    ea56:	466b      	mov	r3, sp
    ea58:	9503      	str	r5, [sp, #12]
    ea5a:	9001      	str	r0, [sp, #4]
    ea5c:	4620      	mov	r0, r4
    ea5e:	9202      	str	r2, [sp, #8]
    ea60:	2210      	movs	r2, #16
    ea62:	f7ff faad 	bl	dfc0 <_ZN7android22QualcommCameraHardware16native_set_parmsE21mm_camera_parm_type_ttPv>
    ea66:	2800      	cmp	r0, #0
    ea68:	bf0c      	ite	eq
    ea6a:	f04f 4000 	moveq.w	r0, #2147483648	; 0x80000000
    ea6e:	2000      	movne	r0, #0
    ea70:	b004      	add	sp, #16
    ea72:	bd70      	pop	{r4, r5, r6, pc}
    ea74:	1356      	asrs	r6, r2, #13
    ea76:	0001      	lsls	r1, r0, #0
    ea78:	110a      	asrs	r2, r1, #4
    ea7a:	0001      	lsls	r1, r0, #0
    ea7c:	fdb0 ffff 	ldc2	15, cr15, [r0, #1020]!	; 0x3fc
    ea80:	fdb4 ffff 	ldc2	15, cr15, [r4, #1020]!	; 0x3fc
    ea84:	b6dc      	undefined instruction 0xb6dc
    ea86:	0000      	lsls	r0, r0, #0
    ea88:	b98e      	cbnz	r6, eaae <_ZN7android22QualcommCameraHardware16runFaceDetectionEv+0x1e>
    ea8a:	0000      	lsls	r0, r0, #0
    ea8c:	c18a      	stmia	r1!, {r1, r3, r7}
	...

0000ea90 <_ZN7android22QualcommCameraHardware16runFaceDetectionEv>:
    ea90:	b57f      	push	{r0, r1, r2, r3, r4, r5, r6, lr}
    ea92:	4b3a      	ldr	r3, [pc, #232]	; (eb7c <_ZN7android22QualcommCameraHardware16runFaceDetectionEv+0xec>)
    ea94:	4a3a      	ldr	r2, [pc, #232]	; (eb80 <_ZN7android22QualcommCameraHardware16runFaceDetectionEv+0xf0>)
    ea96:	4604      	mov	r4, r0
    ea98:	447b      	add	r3, pc
    ea9a:	f100 0014 	add.w	r0, r0, #20
    ea9e:	5899      	ldr	r1, [r3, r2]
    eaa0:	f7fd ea3a 	blx	bf18 <_ZN7android22QualcommCameraHardware22supportsSceneDetectionEv-0x4ec>
    eaa4:	4602      	mov	r2, r0
    eaa6:	2800      	cmp	r0, #0
    eaa8:	d05a      	beq.n	eb60 <_ZN7android22QualcommCameraHardware16runFaceDetectionEv+0xd0>
    eaaa:	4836      	ldr	r0, [pc, #216]	; (eb84 <_ZN7android22QualcommCameraHardware16runFaceDetectionEv+0xf4>)
    eaac:	2102      	movs	r1, #2
    eaae:	4478      	add	r0, pc
    eab0:	f7fe ff7c 	bl	d9ac <_ZN7android22QualcommCameraHardware7MemPoolD2Ev+0x98>
    eab4:	9003      	str	r0, [sp, #12]
    eab6:	f104 00f4 	add.w	r0, r4, #244	; 0xf4
    eaba:	f7fe f8d1 	bl	cc60 <_ZN7android22QualcommCameraHardware10MMCameraDLD2Ev+0x4c>
    eabe:	9b03      	ldr	r3, [sp, #12]
    eac0:	2b01      	cmp	r3, #1
    eac2:	6de3      	ldr	r3, [r4, #92]	; 0x5c
    eac4:	d137      	bne.n	eb36 <_ZN7android22QualcommCameraHardware16runFaceDetectionEv+0xa6>
    eac6:	b11b      	cbz	r3, ead0 <_ZN7android22QualcommCameraHardware16runFaceDetectionEv+0x40>
    eac8:	f104 005c 	add.w	r0, r4, #92	; 0x5c
    eacc:	f7fe fc44 	bl	d358 <_ZN7android2spINS_22QualcommCameraHardware10AshmemPoolEE5clearEv>
    ead0:	2024      	movs	r0, #36	; 0x24
    ead2:	f104 055c 	add.w	r5, r4, #92	; 0x5c
    ead6:	f7fd e9fc 	blx	bed0 <_ZN7android22QualcommCameraHardware22supportsSceneDetectionEv-0x534>
    eada:	2124      	movs	r1, #36	; 0x24
    eadc:	460b      	mov	r3, r1
    eade:	2201      	movs	r2, #1
    eae0:	4606      	mov	r6, r0
    eae2:	4829      	ldr	r0, [pc, #164]	; (eb88 <_ZN7android22QualcommCameraHardware16runFaceDetectionEv+0xf8>)
    eae4:	4478      	add	r0, pc
    eae6:	9000      	str	r0, [sp, #0]
    eae8:	4630      	mov	r0, r6
    eaea:	f7ff fcab 	bl	e444 <_ZN7android22QualcommCameraHardware10AshmemPoolC1EiiiPKc>
    eaee:	4628      	mov	r0, r5
    eaf0:	4631      	mov	r1, r6
    eaf2:	f7fe fd1b 	bl	d52c <_ZN7android2spINS_22QualcommCameraHardware10AshmemPoolEEaSEPS2_>
    eaf6:	6de0      	ldr	r0, [r4, #92]	; 0x5c
    eaf8:	f7fd fc76 	bl	c3e8 <_ZN7android22QualcommCameraHardware22supportsSceneDetectionEv-0x1c>
    eafc:	b9b8      	cbnz	r0, eb2e <_ZN7android22QualcommCameraHardware16runFaceDetectionEv+0x9e>
    eafe:	4e23      	ldr	r6, [pc, #140]	; (eb8c <_ZN7android22QualcommCameraHardware16runFaceDetectionEv+0xfc>)
    eb00:	3006      	adds	r0, #6
    eb02:	4a23      	ldr	r2, [pc, #140]	; (eb90 <_ZN7android22QualcommCameraHardware16runFaceDetectionEv+0x100>)
    eb04:	447e      	add	r6, pc
    eb06:	447a      	add	r2, pc
    eb08:	4631      	mov	r1, r6
    eb0a:	f7fd e93a 	blx	bd80 <_ZN7android22QualcommCameraHardware22supportsSceneDetectionEv-0x684>
    eb0e:	4628      	mov	r0, r5
    eb10:	f7fe fc22 	bl	d358 <_ZN7android2spINS_22QualcommCameraHardware10AshmemPoolEE5clearEv>
    eb14:	4a1f      	ldr	r2, [pc, #124]	; (eb94 <_ZN7android22QualcommCameraHardware16runFaceDetectionEv+0x104>)
    eb16:	4631      	mov	r1, r6
    eb18:	2006      	movs	r0, #6
    eb1a:	447a      	add	r2, pc
    eb1c:	f7fd e930 	blx	bd80 <_ZN7android22QualcommCameraHardware22supportsSceneDetectionEv-0x684>
    eb20:	f104 00f4 	add.w	r0, r4, #244	; 0xf4
    eb24:	f7fd e974 	blx	be10 <_ZN7android22QualcommCameraHardware22supportsSceneDetectionEv-0x5f4>
    eb28:	f04f 4000 	mov.w	r0, #2147483648	; 0x80000000
    eb2c:	e023      	b.n	eb76 <_ZN7android22QualcommCameraHardware16runFaceDetectionEv+0xe6>
    eb2e:	2101      	movs	r1, #1
    eb30:	f884 10f0 	strb.w	r1, [r4, #240]	; 0xf0
    eb34:	e004      	b.n	eb40 <_ZN7android22QualcommCameraHardware16runFaceDetectionEv+0xb0>
    eb36:	b11b      	cbz	r3, eb40 <_ZN7android22QualcommCameraHardware16runFaceDetectionEv+0xb0>
    eb38:	f104 005c 	add.w	r0, r4, #92	; 0x5c
    eb3c:	f7fe fc0c 	bl	d358 <_ZN7android2spINS_22QualcommCameraHardware10AshmemPoolEE5clearEv>
    eb40:	f104 00f4 	add.w	r0, r4, #244	; 0xf4
    eb44:	f7fd e964 	blx	be10 <_ZN7android22QualcommCameraHardware22supportsSceneDetectionEv-0x5f4>
    eb48:	4620      	mov	r0, r4
    eb4a:	211e      	movs	r1, #30
    eb4c:	2201      	movs	r2, #1
    eb4e:	ab03      	add	r3, sp, #12
    eb50:	f7ff fa36 	bl	dfc0 <_ZN7android22QualcommCameraHardware16native_set_parmsE21mm_camera_parm_type_ttPv>
    eb54:	2800      	cmp	r0, #0
    eb56:	bf0c      	ite	eq
    eb58:	f04f 4000 	moveq.w	r0, #2147483648	; 0x80000000
    eb5c:	2000      	movne	r0, #0
    eb5e:	e00a      	b.n	eb76 <_ZN7android22QualcommCameraHardware16runFaceDetectionEv+0xe6>
    eb60:	490d      	ldr	r1, [pc, #52]	; (eb98 <_ZN7android22QualcommCameraHardware16runFaceDetectionEv+0x108>)
    eb62:	2006      	movs	r0, #6
    eb64:	4a0d      	ldr	r2, [pc, #52]	; (eb9c <_ZN7android22QualcommCameraHardware16runFaceDetectionEv+0x10c>)
    eb66:	4b0e      	ldr	r3, [pc, #56]	; (eba0 <_ZN7android22QualcommCameraHardware16runFaceDetectionEv+0x110>)
    eb68:	4479      	add	r1, pc
    eb6a:	447a      	add	r2, pc
    eb6c:	447b      	add	r3, pc
    eb6e:	f7fd e908 	blx	bd80 <_ZN7android22QualcommCameraHardware22supportsSceneDetectionEv-0x684>
    eb72:	f06f 0015 	mvn.w	r0, #21
    eb76:	b004      	add	sp, #16
    eb78:	bd70      	pop	{r4, r5, r6, pc}
    eb7a:	bf00      	nop
    eb7c:	1060      	asrs	r0, r4, #1
    eb7e:	0001      	lsls	r1, r0, #0
    eb80:	fdb8 ffff 	ldc2	15, cr15, [r8, #1020]!	; 0x3fc
    eb84:	073e      	lsls	r6, r7, #28
    eb86:	0001      	lsls	r1, r0, #0
    eb88:	c10a      	stmia	r1!, {r1, r3}
    eb8a:	0000      	lsls	r0, r0, #0
    eb8c:	b8c8      	undefined instruction 0xb8c8
    eb8e:	0000      	lsls	r0, r0, #0
    eb90:	c0f1      	stmia	r0!, {r0, r4, r5, r6, r7}
    eb92:	0000      	lsls	r0, r0, #0
    eb94:	c0ff      	stmia	r0!, {r0, r1, r2, r3, r4, r5, r6, r7}
    eb96:	0000      	lsls	r0, r0, #0
    eb98:	b864      	undefined instruction 0xb864
    eb9a:	0000      	lsls	r0, r0, #0
    eb9c:	c0e4      	stmia	r0!, {r2, r5, r6, r7}
    eb9e:	0000      	lsls	r0, r0, #0
    eba0:	c103      	stmia	r1!, {r0, r1}
	...

0000eba4 <_ZN7android22QualcommCameraHardware16setPictureFormatERKNS_16CameraParametersE>:
    eba4:	4b14      	ldr	r3, [pc, #80]	; (ebf8 <_ZN7android22QualcommCameraHardware16setPictureFormatERKNS_16CameraParametersE+0x54>)
    eba6:	4a15      	ldr	r2, [pc, #84]	; (ebfc <_ZN7android22QualcommCameraHardware16setPictureFormatERKNS_16CameraParametersE+0x58>)
    eba8:	447b      	add	r3, pc
    ebaa:	b570      	push	{r4, r5, r6, lr}
    ebac:	589d      	ldr	r5, [r3, r2]
    ebae:	4606      	mov	r6, r0
    ebb0:	4608      	mov	r0, r1
    ebb2:	4629      	mov	r1, r5
    ebb4:	f7fd e9b0 	blx	bf18 <_ZN7android22QualcommCameraHardware22supportsSceneDetectionEv-0x4ec>
    ebb8:	4604      	mov	r4, r0
    ebba:	b1dc      	cbz	r4, ebf4 <_ZN7android22QualcommCameraHardware16setPictureFormatERKNS_16CameraParametersE+0x50>
    ebbc:	4810      	ldr	r0, [pc, #64]	; (ec00 <_ZN7android22QualcommCameraHardware16setPictureFormatERKNS_16CameraParametersE+0x5c>)
    ebbe:	2102      	movs	r1, #2
    ebc0:	4622      	mov	r2, r4
    ebc2:	4478      	add	r0, pc
    ebc4:	3010      	adds	r0, #16
    ebc6:	f7fe fef1 	bl	d9ac <_ZN7android22QualcommCameraHardware7MemPoolD2Ev+0x98>
    ebca:	f1b0 3fff 	cmp.w	r0, #4294967295
    ebce:	d007      	beq.n	ebe0 <_ZN7android22QualcommCameraHardware16setPictureFormatERKNS_16CameraParametersE+0x3c>
    ebd0:	f106 0014 	add.w	r0, r6, #20
    ebd4:	4629      	mov	r1, r5
    ebd6:	4622      	mov	r2, r4
    ebd8:	f7fd e9a4 	blx	bf24 <_ZN7android22QualcommCameraHardware22supportsSceneDetectionEv-0x4e0>
    ebdc:	2000      	movs	r0, #0
    ebde:	e009      	b.n	ebf4 <_ZN7android22QualcommCameraHardware16setPictureFormatERKNS_16CameraParametersE+0x50>
    ebe0:	4908      	ldr	r1, [pc, #32]	; (ec04 <_ZN7android22QualcommCameraHardware16setPictureFormatERKNS_16CameraParametersE+0x60>)
    ebe2:	2006      	movs	r0, #6
    ebe4:	4a08      	ldr	r2, [pc, #32]	; (ec08 <_ZN7android22QualcommCameraHardware16setPictureFormatERKNS_16CameraParametersE+0x64>)
    ebe6:	4623      	mov	r3, r4
    ebe8:	4479      	add	r1, pc
    ebea:	447a      	add	r2, pc
    ebec:	f7fd e8c8 	blx	bd80 <_ZN7android22QualcommCameraHardware22supportsSceneDetectionEv-0x684>
    ebf0:	f06f 0015 	mvn.w	r0, #21
    ebf4:	bd70      	pop	{r4, r5, r6, pc}
    ebf6:	bf00      	nop
    ebf8:	0f50      	lsrs	r0, r2, #29
    ebfa:	0001      	lsls	r1, r0, #0
    ebfc:	fdbc ffff 	ldc2	15, cr15, [ip, #1020]!	; 0x3fc
    ec00:	062a      	lsls	r2, r5, #24
    ec02:	0001      	lsls	r1, r0, #0
    ec04:	b7e4      	undefined instruction 0xb7e4
    ec06:	0000      	lsls	r0, r0, #0
    ec08:	c08a      	stmia	r0!, {r1, r3, r7}
	...

0000ec0c <_ZN7android22QualcommCameraHardware14setOrientationERKNS_16CameraParametersE>:
    ec0c:	4b14      	ldr	r3, [pc, #80]	; (ec60 <_ZN7android22QualcommCameraHardware14setOrientationERKNS_16CameraParametersE+0x54>)
    ec0e:	b570      	push	{r4, r5, r6, lr}
    ec10:	447b      	add	r3, pc
    ec12:	4605      	mov	r5, r0
    ec14:	4608      	mov	r0, r1
    ec16:	4619      	mov	r1, r3
    ec18:	f7fd e97e 	blx	bf18 <_ZN7android22QualcommCameraHardware22supportsSceneDetectionEv-0x4ec>
    ec1c:	4604      	mov	r4, r0
    ec1e:	b1f4      	cbz	r4, ec5e <_ZN7android22QualcommCameraHardware14setOrientationERKNS_16CameraParametersE+0x52>
    ec20:	4910      	ldr	r1, [pc, #64]	; (ec64 <_ZN7android22QualcommCameraHardware14setOrientationERKNS_16CameraParametersE+0x58>)
    ec22:	4620      	mov	r0, r4
    ec24:	4479      	add	r1, pc
    ec26:	f7fd e936 	blx	be94 <_ZN7android22QualcommCameraHardware22supportsSceneDetectionEv-0x570>
    ec2a:	b128      	cbz	r0, ec38 <_ZN7android22QualcommCameraHardware14setOrientationERKNS_16CameraParametersE+0x2c>
    ec2c:	490e      	ldr	r1, [pc, #56]	; (ec68 <_ZN7android22QualcommCameraHardware14setOrientationERKNS_16CameraParametersE+0x5c>)
    ec2e:	4620      	mov	r0, r4
    ec30:	4479      	add	r1, pc
    ec32:	f7fd e930 	blx	be94 <_ZN7android22QualcommCameraHardware22supportsSceneDetectionEv-0x570>
    ec36:	b940      	cbnz	r0, ec4a <_ZN7android22QualcommCameraHardware14setOrientationERKNS_16CameraParametersE+0x3e>
    ec38:	490c      	ldr	r1, [pc, #48]	; (ec6c <_ZN7android22QualcommCameraHardware14setOrientationERKNS_16CameraParametersE+0x60>)
    ec3a:	f105 0014 	add.w	r0, r5, #20
    ec3e:	4622      	mov	r2, r4
    ec40:	4479      	add	r1, pc
